cnumpy.core.multiarray
_reconstruct
p0
(cnumpy
ndarray
p1
(I0
tp2
S'b'
p3
tp4
Rp5
(I1
(L153L
L208L
tp6
cnumpy
dtype
p7
(S'O8'
p8
I0
I1
tp9
Rp10
(I3
S'|'
p11
NNNI-1
I-1
I63
tp12
bI00
(lp13
L402945L
aL2556L
aL1L
aVCS213
p14
aL6L
aL0L
aL0L
aL0L
aF0.0
aL0L
aF0.0
aL0L
aL0L
aL0L
aL0L
aL0L
aL0L
aL0L
aL0L
aL0L
aL11L
aL0L
aL0L
aL0L
aL7L
aL9L
aL0L
aL6L
aL0L
aL0L
aL0L
aL0L
aL0L
aL0L
aL0L
aL0L
aL0L
aL0L
aL0L
aL0L
aL0L
aL0L
aL0L
aL0L
aL0L
aL0L
aL0L
aL0L
aL0L
aL0L
aL0L
aL0L
aL0L
aL0L
aL0L
aL0L
aL0L
aL0L
aL0L
aL0L
aL0L
aL0L
aL0L
aL0L
aL0L
aL0L
aL0L
aL0L
aL0L
aL0L
aL0L
aL0L
aL0L
aL0L
aL0L
aL0L
aL0L
aL0L
aL0L
aL0L
aL0L
aL0L
aL0L
aL0L
aL0L
aL0L
aL0L
aL0L
aL0L
aL0L
aL0L
aL0L
aL0L
aL0L
aL0L
aL0L
aL0L
aL0L
aF0.0
aF0.0
aL0L
aL0L
aL0L
aL10L
aL10L
aL0L
aL0L
aL0L
aL0L
aL0L
aL0L
aL0L
aL0L
aL0L
aL0L
aL0L
aL0L
aL0L
aL0L
aL0L
aL0L
aL0L
aL0L
aL0L
aL0L
aL0L
aF0.0
aL0L
aF0.0
aL0L
aL5L
aL0L
aL0L
aL0L
aL0L
aL0L
aL0L
aL0L
aL0L
aF0.0
aL0L
aL0L
aL0L
aF0.0
aL0L
aL0L
aL0L
aL0L
aL0L
aF0.0
aL0L
aL0L
aL0L
aL0L
aL0L
aF0.0
aF0.0
aL0L
aF0.0
aL8L
aL0L
aL0L
aL0L
aL0L
aL0L
aL5L
aL0L
aL11L
aL0L
aL8L
aL0L
aF0.0
aF0.0
aF0.0
aL0L
aF0.0
aL0L
aL11L
aL0L
aL0L
aL0L
aL0L
aL0L
aL0L
aL0L
aL0L
aL0L
aL0L
aL0L
aL0L
aF0.0
aF0.0
aL0L
aL0L
aL9L
aL0L
aL0L
aF0.0
aF0.0
aL0L
aL0L
aL13L
aF0.0
aL0L
aL0L
aL0L
aL8L
aF0.0
aL402946L
aL2556L
aL1L
ag14
aL8L
aL0L
aL0L
aL0L
aF0.0
aL0L
aF0.0
aL0L
aL0L
aL0L
aL0L
aL0L
aL0L
aL0L
aL0L
aL12L
aL0L
aL0L
aL0L
aL0L
aL8L
aL7L
aL0L
aL8L
aL0L
aL0L
aL0L
aL0L
aL0L
aL0L
aL0L
aL0L
aL0L
aL0L
aL0L
aL0L
aL0L
aL0L
aL0L
aL0L
aL0L
aL0L
aL0L
aL0L
aL0L
aL0L
aL0L
aL0L
aL0L
aL0L
aL0L
aL0L
aL0L
aL0L
aL0L
aL0L
aL0L
aL0L
aL0L
aL0L
aL0L
aL0L
aL0L
aL0L
aL0L
aL0L
aL0L
aL0L
aL0L
aL0L
aL0L
aL0L
aL0L
aL0L
aL0L
aL0L
aL0L
aL0L
aL0L
aL0L
aL0L
aL0L
aL0L
aL0L
aL0L
aL0L
aL0L
aL0L
aL0L
aL0L
aL0L
aL0L
aL0L
aL0L
aF0.0
aF0.0
aL0L
aL0L
aL0L
aL9L
aL9L
aL0L
aL0L
aL0L
aL0L
aL0L
aL0L
aL0L
aL0L
aL0L
aL0L
aL0L
aL5L
aL0L
aL0L
aL0L
aL0L
aL0L
aL0L
aL0L
aL0L
aL0L
aF0.0
aL0L
aF0.0
aL0L
aL5L
aL0L
aL0L
aL0L
aL0L
aL0L
aL0L
aL0L
aL0L
aF0.0
aL0L
aL0L
aL0L
aF0.0
aL0L
aL0L
aL0L
aL0L
aL0L
aF0.0
aL0L
aL0L
aL0L
aL0L
aL0L
aF0.0
aF0.0
aL0L
aF0.0
aL9L
aL0L
aL0L
aL0L
aL0L
aL0L
aL5L
aL0L
aL10L
aL0L
aL9L
aL0L
aF0.0
aF0.0
aF0.0
aL0L
aF0.0
aL0L
aL0L
aL0L
aL0L
aL0L
aL0L
aL0L
aL0L
aL0L
aL0L
aL0L
aL0L
aL0L
aL0L
aF0.0
aF0.0
aL0L
aL0L
aL9L
aL0L
aL0L
aF0.0
aF0.0
aL0L
aL0L
aL12L
aF0.0
aL0L
aL0L
aL0L
aL8L
aF0.0
aL402947L
aL2556L
aL1L
ag14
aL6L
aL0L
aL0L
aL0L
aF0.0
aL0L
aF0.0
aL0L
aL0L
aL0L
aL0L
aL0L
aL0L
aL0L
aL0L
aL0L
aL0L
aL0L
aL0L
aL0L
aL9L
aL8L
aL0L
aL7L
aL0L
aL0L
aL0L
aL0L
aL0L
aL0L
aL0L
aL0L
aL0L
aL0L
aL0L
aL0L
aL0L
aL0L
aL0L
aL0L
aL0L
aL0L
aL0L
aL0L
aL0L
aL0L
aL0L
aL0L
aL0L
aL0L
aL0L
aL0L
aL0L
aL0L
aL0L
aL0L
aL0L
aL0L
aL0L
aL0L
aL0L
aL0L
aL0L
aL0L
aL0L
aL0L
aL0L
aL0L
aL0L
aL0L
aL0L
aL0L
aL0L
aL0L
aL0L
aL0L
aL0L
aL0L
aL0L
aL0L
aL0L
aL0L
aL0L
aL0L
aL0L
aL0L
aL0L
aL0L
aL0L
aL0L
aL0L
aL0L
aL0L
aL0L
aF0.0
aF0.0
aL0L
aL0L
aL0L
aL10L
aL9L
aL0L
aL0L
aL0L
aL0L
aL0L
aL0L
aL0L
aL0L
aL0L
aL0L
aL0L
aL0L
aL0L
aL0L
aL0L
aL0L
aL0L
aL0L
aL0L
aL0L
aL0L
aF0.0
aL0L
aF0.0
aL0L
aL10L
aL6L
aL0L
aL0L
aL0L
aL0L
aL0L
aL0L
aL0L
aF0.0
aL0L
aL0L
aL0L
aF0.0
aL0L
aL0L
aL0L
aL0L
aL0L
aF0.0
aL0L
aL0L
aL0L
aL0L
aL0L
aF0.0
aF0.0
aL0L
aF0.0
aL10L
aL0L
aL0L
aL0L
aL0L
aL0L
aL5L
aL0L
aL8L
aL0L
aL0L
aL0L
aF0.0
aF0.0
aF0.0
aL0L
aF0.0
aL0L
aL0L
aL0L
aL0L
aL0L
aL0L
aL0L
aL0L
aL0L
aL0L
aL0L
aL0L
aL0L
aL0L
aF0.0
aF0.0
aL0L
aL0L
aL9L
aL0L
aL0L
aF0.0
aF0.0
aL0L
aL0L
aL13L
aF0.0
aL0L
aL0L
aL0L
aL10L
aF0.0
aL402948L
aL2556L
aL1L
ag14
aL9L
aL0L
aL0L
aL0L
aF0.0
aL0L
aF0.0
aL0L
aL0L
aL0L
aL0L
aL0L
aL0L
aL0L
aL0L
aL0L
aL0L
aL0L
aL0L
aL0L
aL7L
aL9L
aL0L
aL9L
aL0L
aL0L
aL0L
aL0L
aL0L
aL0L
aL0L
aL0L
aL0L
aL0L
aL0L
aL0L
aL0L
aL0L
aL0L
aL0L
aL0L
aL0L
aL0L
aL0L
aL0L
aL0L
aL0L
aL0L
aL0L
aL0L
aL0L
aL0L
aL0L
aL0L
aL0L
aL0L
aL0L
aL0L
aL0L
aL0L
aL0L
aL0L
aL0L
aL0L
aL0L
aL0L
aL0L
aL0L
aL0L
aL0L
aL0L
aL0L
aL0L
aL0L
aL0L
aL0L
aL0L
aL0L
aL0L
aL0L
aL0L
aL0L
aL0L
aL0L
aL0L
aL0L
aL0L
aL0L
aL0L
aL0L
aL0L
aL0L
aL0L
aL0L
aF0.0
aF0.0
aL0L
aL0L
aL3L
aL9L
aL11L
aL0L
aL0L
aL0L
aL0L
aL0L
aL0L
aL0L
aL0L
aL0L
aL0L
aL0L
aL0L
aL0L
aL0L
aL0L
aL0L
aL0L
aL0L
aL0L
aL0L
aL0L
aF0.0
aL0L
aF0.0
aL0L
aL9L
aL9L
aL0L
aL0L
aL0L
aL0L
aL0L
aL0L
aL0L
aF0.0
aL0L
aL0L
aL0L
aF0.0
aL0L
aL0L
aL0L
aL0L
aL0L
aF0.0
aL0L
aL0L
aL0L
aL0L
aL0L
aF0.0
aF0.0
aL0L
aF0.0
aL10L
aL0L
aL0L
aL0L
aL0L
aL0L
aL9L
aL0L
aL10L
aL0L
aL0L
aL10L
aF0.0
aF0.0
aF0.0
aL0L
aF0.0
aL0L
aL0L
aL0L
aL0L
aL0L
aL0L
aL0L
aL0L
aL0L
aL0L
aL0L
aL0L
aL0L
aL0L
aF0.0
aF0.0
aL0L
aL0L
aL10L
aL0L
aL0L
aF0.0
aF0.0
aL0L
aL0L
aL13L
aF0.0
aL0L
aL0L
aL0L
aL8L
aF0.0
aL402949L
aL2556L
aL1L
ag14
aL6L
aL0L
aL0L
aL0L
aF0.0
aL0L
aF0.0
aL0L
aL0L
aL0L
aL0L
aL0L
aL0L
aL0L
aL0L
aL0L
aL0L
aL0L
aL0L
aL0L
aL10L
aL10L
aL0L
aL8L
aL0L
aL0L
aL0L
aL0L
aL0L
aL0L
aL0L
aL0L
aL0L
aL0L
aL0L
aL0L
aL0L
aL0L
aL0L
aL0L
aL0L
aL0L
aL0L
aL0L
aL0L
aL0L
aL0L
aL0L
aL0L
aL0L
aL0L
aL0L
aL0L
aL0L
aL0L
aL0L
aL0L
aL0L
aL0L
aL0L
aL0L
aL0L
aL0L
aL0L
aL0L
aL0L
aL0L
aL0L
aL0L
aL0L
aL0L
aL0L
aL0L
aL0L
aL0L
aL0L
aL0L
aL0L
aL0L
aL0L
aL0L
aL0L
aL0L
aL0L
aL0L
aL0L
aL0L
aL0L
aL0L
aL0L
aL0L
aL0L
aL0L
aL0L
aF0.0
aF0.0
aL0L
aL0L
aL0L
aL13L
aL13L
aL0L
aL0L
aL0L
aL0L
aL0L
aL0L
aL0L
aL0L
aL0L
aL0L
aL0L
aL0L
aL0L
aL0L
aL0L
aL0L
aL0L
aL0L
aL0L
aL0L
aL0L
aF0.0
aL0L
aF0.0
aL0L
aL10L
aL6L
aL0L
aL0L
aL0L
aL0L
aL0L
aL0L
aL0L
aF0.0
aL0L
aL0L
aL0L
aF0.0
aL0L
aL0L
aL0L
aL0L
aL0L
aF0.0
aL0L
aL0L
aL0L
aL0L
aL0L
aF0.0
aF0.0
aL0L
aF0.0
aL10L
aL0L
aL0L
aL0L
aL0L
aL0L
aL5L
aL0L
aL10L
aL0L
aL0L
aL0L
aF0.0
aF0.0
aF0.0
aL0L
aF0.0
aL0L
aL0L
aL0L
aL0L
aL0L
aL0L
aL0L
aL0L
aL0L
aL0L
aL0L
aL0L
aL0L
aL0L
aF0.0
aF0.0
aL0L
aL0L
aL11L
aL0L
aL0L
aF0.0
aF0.0
aL0L
aL0L
aL10L
aF0.0
aL0L
aL0L
aL0L
aL9L
aF0.0
aL402950L
aL2556L
aL1L
ag14
aL10L
aL0L
aL0L
aL0L
aF0.0
aL0L
aF0.0
aL0L
aL0L
aL0L
aL0L
aL0L
aL0L
aL0L
aL0L
aL0L
aL12L
aL0L
aL0L
aL0L
aL9L
aL10L
aL0L
aL9L
aL0L
aL0L
aL0L
aL0L
aL0L
aL0L
aL0L
aL0L
aL0L
aL0L
aL0L
aL0L
aL0L
aL0L
aL0L
aL0L
aL0L
aL0L
aL0L
aL0L
aL0L
aL0L
aL0L
aL0L
aL0L
aL0L
aL0L
aL0L
aL0L
aL0L
aL0L
aL0L
aL0L
aL0L
aL0L
aL0L
aL0L
aL0L
aL0L
aL0L
aL0L
aL0L
aL0L
aL0L
aL0L
aL0L
aL0L
aL0L
aL0L
aL0L
aL0L
aL0L
aL0L
aL0L
aL0L
aL0L
aL0L
aL0L
aL0L
aL0L
aL0L
aL0L
aL0L
aL0L
aL0L
aL0L
aL0L
aL0L
aL0L
aL0L
aF0.0
aF0.0
aL0L
aL0L
aL0L
aL10L
aL10L
aL0L
aL0L
aL0L
aL0L
aL0L
aL0L
aL0L
aL0L
aL0L
aL0L
aL0L
aL0L
aL0L
aL0L
aL0L
aL0L
aL0L
aL0L
aL0L
aL0L
aL0L
aF0.0
aL0L
aF0.0
aL0L
aL9L
aL5L
aL0L
aL0L
aL0L
aL0L
aL0L
aL0L
aL0L
aF0.0
aL0L
aL0L
aL0L
aF0.0
aL0L
aL0L
aL0L
aL0L
aL0L
aF0.0
aL0L
aL0L
aL0L
aL0L
aL0L
aF0.0
aF0.0
aL0L
aF0.0
aL12L
aL0L
aL0L
aL0L
aL0L
aL0L
aL8L
aL0L
aL12L
aL0L
aL0L
aL12L
aF0.0
aF0.0
aF0.0
aL0L
aF0.0
aL0L
aL0L
aL0L
aL0L
aL0L
aL0L
aL0L
aL0L
aL0L
aL0L
aL0L
aL0L
aL0L
aL0L
aF0.0
aF0.0
aL0L
aL0L
aL9L
aL0L
aL0L
aF0.0
aF0.0
aL0L
aL0L
aL13L
aF0.0
aL0L
aL0L
aL0L
aL10L
aF0.0
aL402951L
aL2556L
aL1L
ag14
aL7L
aL0L
aL0L
aL0L
aF0.0
aL0L
aF0.0
aL0L
aL0L
aL0L
aL0L
aL0L
aL0L
aL0L
aL0L
aL0L
aL12L
aL0L
aL0L
aL0L
aL9L
aL9L
aL0L
aL7L
aL0L
aL0L
aL0L
aL0L
aL0L
aL0L
aL0L
aL0L
aL0L
aL0L
aL0L
aL0L
aL0L
aL0L
aL0L
aL0L
aL0L
aL0L
aL0L
aL0L
aL0L
aL0L
aL0L
aL0L
aL0L
aL0L
aL0L
aL0L
aL0L
aL0L
aL0L
aL0L
aL0L
aL0L
aL0L
aL0L
aL0L
aL0L
aL0L
aL0L
aL0L
aL0L
aL0L
aL0L
aL0L
aL0L
aL0L
aL0L
aL0L
aL0L
aL0L
aL0L
aL0L
aL0L
aL0L
aL0L
aL0L
aL0L
aL0L
aL0L
aL0L
aL0L
aL0L
aL0L
aL0L
aL0L
aL0L
aL0L
aL0L
aL0L
aF0.0
aF0.0
aL0L
aL0L
aL0L
aL9L
aL9L
aL0L
aL0L
aL0L
aL0L
aL0L
aL0L
aL0L
aL0L
aL0L
aL0L
aL0L
aL0L
aL0L
aL0L
aL0L
aL0L
aL0L
aL0L
aL0L
aL0L
aL0L
aF0.0
aL0L
aF0.0
aL0L
aL7L
aL0L
aL0L
aL0L
aL0L
aL0L
aL0L
aL0L
aL0L
aF0.0
aL0L
aL0L
aL0L
aF0.0
aL0L
aL0L
aL0L
aL0L
aL0L
aF0.0
aL0L
aL0L
aL0L
aL0L
aL0L
aF0.0
aF0.0
aL0L
aF0.0
aL12L
aL0L
aL0L
aL0L
aL0L
aL0L
aL7L
aL0L
aL10L
aL0L
aL8L
aL0L
aF0.0
aF0.0
aF0.0
aL0L
aF0.0
aL0L
aL11L
aL0L
aL0L
aL0L
aL0L
aL0L
aL0L
aL0L
aL0L
aL0L
aL0L
aL0L
aL0L
aF0.0
aF0.0
aL0L
aL0L
aL9L
aL0L
aL0L
aF0.0
aF0.0
aL0L
aL0L
aL13L
aF0.0
aL0L
aL0L
aL0L
aL8L
aF0.0
aL402952L
aL2556L
aL1L
ag14
aL9L
aL0L
aL0L
aL0L
aF0.0
aL0L
aF0.0
aL0L
aL0L
aL0L
aL0L
aL0L
aL0L
aL0L
aL0L
aL0L
aL11L
aL0L
aL0L
aL0L
aL9L
aL8L
aL0L
aL9L
aL0L
aL0L
aL0L
aL0L
aL0L
aL0L
aL0L
aL0L
aL0L
aL0L
aL0L
aL0L
aL0L
aL0L
aL0L
aL0L
aL0L
aL0L
aL0L
aL0L
aL0L
aL0L
aL0L
aL0L
aL0L
aL0L
aL0L
aL0L
aL0L
aL0L
aL0L
aL0L
aL0L
aL0L
aL0L
aL0L
aL0L
aL0L
aL0L
aL0L
aL0L
aL0L
aL0L
aL0L
aL0L
aL0L
aL0L
aL0L
aL0L
aL0L
aL0L
aL0L
aL0L
aL0L
aL0L
aL0L
aL0L
aL0L
aL0L
aL0L
aL0L
aL0L
aL0L
aL0L
aL0L
aL0L
aL0L
aL0L
aL0L
aL0L
aF0.0
aF0.0
aL0L
aL0L
aL0L
aL11L
aL10L
aL0L
aL0L
aL0L
aL0L
aL0L
aL0L
aL0L
aL0L
aL0L
aL0L
aL0L
aL0L
aL0L
aL0L
aL0L
aL0L
aL0L
aL0L
aL0L
aL0L
aL0L
aF0.0
aL0L
aF0.0
aL0L
aL5L
aL0L
aL0L
aL0L
aL0L
aL0L
aL0L
aL0L
aL0L
aF0.0
aL0L
aL0L
aL0L
aF0.0
aL0L
aL0L
aL0L
aL0L
aL0L
aF0.0
aL0L
aL0L
aL0L
aL0L
aL0L
aF0.0
aF0.0
aL0L
aF0.0
aL11L
aL0L
aL0L
aL0L
aL0L
aL0L
aL8L
aL0L
aL10L
aL0L
aL0L
aL0L
aF0.0
aF0.0
aF0.0
aL0L
aF0.0
aL0L
aL0L
aL0L
aL0L
aL0L
aL0L
aL0L
aL0L
aL0L
aL0L
aL0L
aL0L
aL0L
aL0L
aF0.0
aF0.0
aL0L
aL0L
aL11L
aL0L
aL0L
aF0.0
aF0.0
aL0L
aL0L
aL13L
aF0.0
aL0L
aL0L
aL0L
aL9L
aF0.0
aL402953L
aL2556L
aL1L
ag14
aL6L
aL0L
aL0L
aL0L
aF0.0
aL0L
aF0.0
aL0L
aL0L
aL0L
aL0L
aL0L
aL0L
aL0L
aL0L
aL0L
aL0L
aL0L
aL0L
aL0L
aL8L
aL9L
aL0L
aL7L
aL0L
aL0L
aL0L
aL0L
aL0L
aL0L
aL0L
aL0L
aL0L
aL0L
aL0L
aL0L
aL0L
aL0L
aL0L
aL0L
aL0L
aL0L
aL0L
aL0L
aL0L
aL0L
aL0L
aL0L
aL0L
aL0L
aL0L
aL0L
aL0L
aL0L
aL0L
aL0L
aL0L
aL0L
aL0L
aL0L
aL0L
aL0L
aL0L
aL0L
aL0L
aL0L
aL0L
aL0L
aL0L
aL0L
aL0L
aL0L
aL0L
aL0L
aL0L
aL0L
aL0L
aL0L
aL0L
aL0L
aL0L
aL0L
aL0L
aL0L
aL0L
aL0L
aL0L
aL0L
aL0L
aL0L
aL0L
aL0L
aL0L
aL0L
aF0.0
aF0.0
aL0L
aL0L
aL3L
aL10L
aL10L
aL0L
aL0L
aL0L
aL0L
aL0L
aL0L
aL0L
aL0L
aL0L
aL0L
aL0L
aL0L
aL0L
aL0L
aL0L
aL0L
aL0L
aL0L
aL0L
aL0L
aL0L
aF0.0
aL0L
aF0.0
aL0L
aL5L
aL0L
aL0L
aL0L
aL0L
aL0L
aL0L
aL0L
aL0L
aF0.0
aL0L
aL0L
aL0L
aF0.0
aL0L
aL0L
aL0L
aL0L
aL0L
aF0.0
aL0L
aL0L
aL0L
aL0L
aL0L
aF0.0
aF0.0
aL0L
aF0.0
aL12L
aL0L
aL0L
aL0L
aL0L
aL0L
aL5L
aL0L
aL9L
aL0L
aL0L
aL0L
aF0.0
aF0.0
aF0.0
aL0L
aF0.0
aL0L
aL0L
aL0L
aL0L
aL0L
aL0L
aL0L
aL0L
aL0L
aL0L
aL0L
aL0L
aL0L
aL0L
aF0.0
aF0.0
aL0L
aL0L
aL12L
aL0L
aL0L
aF0.0
aF0.0
aL0L
aL0L
aL13L
aF0.0
aL0L
aL0L
aL0L
aL9L
aF0.0
aL402955L
aL2556L
aL1L
ag14
aL13L
aL0L
aL0L
aL0L
aF0.0
aL0L
aF0.0
aL0L
aL0L
aL0L
aL0L
aL0L
aL0L
aL0L
aL0L
aL0L
aL0L
aL0L
aL0L
aL0L
aL10L
aL13L
aL0L
aL13L
aL0L
aL0L
aL0L
aL0L
aL0L
aL0L
aL0L
aL0L
aL0L
aL0L
aL0L
aL0L
aL0L
aL0L
aL0L
aL0L
aL0L
aL0L
aL0L
aL0L
aL0L
aL0L
aL0L
aL0L
aL0L
aL0L
aL0L
aL0L
aL0L
aL0L
aL0L
aL0L
aL0L
aL0L
aL0L
aL0L
aL0L
aL0L
aL0L
aL0L
aL0L
aL0L
aL0L
aL0L
aL0L
aL0L
aL0L
aL0L
aL0L
aL0L
aL0L
aL0L
aL0L
aL0L
aL0L
aL0L
aL0L
aL0L
aL0L
aL0L
aL0L
aL0L
aL0L
aL0L
aL0L
aL0L
aL0L
aL0L
aL0L
aL0L
aF0.0
aF0.0
aL0L
aL0L
aL3L
aL13L
aL13L
aL0L
aL0L
aL0L
aL0L
aL0L
aL0L
aL0L
aL0L
aL0L
aL0L
aL0L
aL0L
aL0L
aL0L
aL0L
aL0L
aL0L
aL0L
aL0L
aL0L
aL0L
aF0.0
aL0L
aF0.0
aL0L
aL10L
aL11L
aL0L
aL0L
aL0L
aL0L
aL0L
aL0L
aL0L
aF0.0
aL0L
aL0L
aL0L
aF0.0
aL0L
aL0L
aL0L
aL0L
aL0L
aF0.0
aL0L
aL0L
aL0L
aL0L
aL0L
aF0.0
aF0.0
aL0L
aF0.0
aL13L
aL0L
aL0L
aL0L
aL0L
aL0L
aL5L
aL0L
aL11L
aL0L
aL0L
aL13L
aF0.0
aF0.0
aF0.0
aL0L
aF0.0
aL0L
aL0L
aL0L
aL0L
aL0L
aL0L
aL0L
aL0L
aL0L
aL0L
aL0L
aL0L
aL0L
aL0L
aF0.0
aF0.0
aL0L
aL0L
aL12L
aL0L
aL0L
aF0.0
aF0.0
aL0L
aL0L
aL13L
aF0.0
aL0L
aL0L
aL0L
aL13L
aF0.0
aL402957L
aL2557L
aL1L
ag14
aL5L
aL0L
aL0L
aL0L
aF0.0
aL0L
aF0.0
aL0L
aL0L
aL0L
aL0L
aL0L
aL0L
aL0L
aL0L
aL0L
aL12L
aL11L
aL0L
aL0L
aL7L
aL6L
aL0L
aL5L
aL0L
aL0L
aL0L
aL8L
aL0L
aL0L
aL0L
aL0L
aL0L
aL6L
aL0L
aL0L
aL0L
aL0L
aL0L
aL0L
aL0L
aL0L
aL0L
aL0L
aL0L
aL0L
aL0L
aL0L
aL0L
aL0L
aL0L
aL0L
aL0L
aL0L
aL0L
aL0L
aL0L
aL0L
aL0L
aL0L
aL0L
aL0L
aL0L
aL0L
aL0L
aL0L
aL0L
aL0L
aL0L
aL0L
aL0L
aL0L
aL0L
aL0L
aL0L
aL0L
aL0L
aL0L
aL0L
aL0L
aL0L
aL0L
aL0L
aL0L
aL0L
aL0L
aL0L
aL0L
aL0L
aL0L
aL0L
aL0L
aL0L
aL0L
aF0.0
aF0.0
aL0L
aL0L
aL0L
aL9L
aL11L
aL0L
aL0L
aL10L
aL0L
aL0L
aL8L
aL7L
aL0L
aL0L
aL0L
aL0L
aL11L
aL0L
aL0L
aL0L
aL0L
aL0L
aL0L
aL0L
aL0L
aL0L
aF0.0
aL0L
aF0.0
aL0L
aL0L
aL0L
aL0L
aL0L
aL0L
aL0L
aL0L
aL0L
aL0L
aF0.0
aL0L
aL0L
aL0L
aF0.0
aL0L
aL0L
aL0L
aL0L
aL0L
aF0.0
aL0L
aL0L
aL0L
aL0L
aL0L
aF0.0
aF0.0
aL0L
aF0.0
aL10L
aL0L
aL0L
aL0L
aL0L
aL0L
aL0L
aL0L
aL9L
aL0L
aL5L
aL0L
aF0.0
aF0.0
aF0.0
aL0L
aF0.0
aL0L
aL0L
aL0L
aL11L
aL0L
aL0L
aL0L
aL0L
aL13L
aL0L
aL0L
aL0L
aL13L
aL0L
aF0.0
aF0.0
aL0L
aL0L
aL9L
aL0L
aL6L
aF0.0
aF0.0
aL0L
aL0L
aL12L
aF0.0
aL0L
aL8L
aL0L
aL6L
aF0.0
aL402958L
aL2556L
aL1L
ag14
aL9L
aL0L
aL0L
aL0L
aF0.0
aL0L
aF0.0
aL0L
aL0L
aL0L
aL0L
aL0L
aL0L
aL0L
aL0L
aL0L
aL11L
aL0L
aL0L
aL0L
aL8L
aL9L
aL0L
aL11L
aL0L
aL0L
aL0L
aL0L
aL0L
aL0L
aL0L
aL0L
aL0L
aL0L
aL0L
aL0L
aL0L
aL0L
aL0L
aL0L
aL0L
aL0L
aL0L
aL0L
aL0L
aL0L
aL0L
aL0L
aL0L
aL0L
aL0L
aL0L
aL0L
aL0L
aL0L
aL0L
aL0L
aL0L
aL0L
aL0L
aL0L
aL0L
aL0L
aL0L
aL0L
aL0L
aL0L
aL0L
aL0L
aL0L
aL0L
aL0L
aL0L
aL0L
aL0L
aL0L
aL0L
aL0L
aL0L
aL0L
aL0L
aL0L
aL0L
aL0L
aL0L
aL0L
aL0L
aL0L
aL0L
aL0L
aL0L
aL0L
aL0L
aL0L
aF0.0
aF0.0
aL0L
aL0L
aL3L
aL11L
aL12L
aL0L
aL0L
aL0L
aL0L
aL0L
aL0L
aL0L
aL0L
aL0L
aL0L
aL0L
aL0L
aL0L
aL0L
aL0L
aL0L
aL0L
aL0L
aL0L
aL0L
aL0L
aF0.0
aL0L
aF0.0
aL0L
aL7L
aL7L
aL0L
aL0L
aL0L
aL0L
aL0L
aL0L
aL0L
aF0.0
aL0L
aL0L
aL0L
aF0.0
aL0L
aL0L
aL0L
aL0L
aL0L
aF0.0
aL0L
aL0L
aL0L
aL0L
aL0L
aF0.0
aF0.0
aL0L
aF0.0
aL13L
aL0L
aL0L
aL0L
aL0L
aL0L
aL8L
aL0L
aL10L
aL0L
aL0L
aL0L
aF0.0
aF0.0
aF0.0
aL0L
aF0.0
aL0L
aL0L
aL0L
aL0L
aL0L
aL0L
aL0L
aL0L
aL0L
aL0L
aL0L
aL0L
aL0L
aL0L
aF0.0
aF0.0
aL0L
aL0L
aL10L
aL0L
aL0L
aF0.0
aF0.0
aL0L
aL0L
aL12L
aF0.0
aL0L
aL0L
aL0L
aL8L
aF0.0
aL402959L
aL2556L
aL1L
ag14
aL6L
aL0L
aL0L
aL0L
aF0.0
aL0L
aF0.0
aL0L
aL0L
aL0L
aL0L
aL0L
aL0L
aL0L
aL0L
aL0L
aL0L
aL0L
aL0L
aL0L
aL8L
aL7L
aL0L
aL7L
aL0L
aL0L
aL0L
aL0L
aL0L
aL0L
aL0L
aL0L
aL0L
aL0L
aL0L
aL0L
aL0L
aL0L
aL0L
aL0L
aL0L
aL0L
aL0L
aL0L
aL0L
aL0L
aL0L
aL0L
aL0L
aL0L
aL0L
aL0L
aL0L
aL0L
aL0L
aL0L
aL0L
aL0L
aL0L
aL0L
aL0L
aL0L
aL0L
aL0L
aL0L
aL0L
aL0L
aL0L
aL0L
aL0L
aL0L
aL0L
aL0L
aL0L
aL0L
aL0L
aL0L
aL0L
aL0L
aL0L
aL0L
aL0L
aL0L
aL0L
aL0L
aL0L
aL0L
aL0L
aL0L
aL0L
aL0L
aL0L
aL0L
aL0L
aF0.0
aF0.0
aL0L
aL0L
aL3L
aL10L
aL11L
aL0L
aL0L
aL0L
aL0L
aL0L
aL0L
aL0L
aL0L
aL0L
aL0L
aL0L
aL0L
aL0L
aL0L
aL0L
aL0L
aL0L
aL0L
aL0L
aL0L
aL0L
aF0.0
aL0L
aF0.0
aL0L
aL5L
aL0L
aL0L
aL0L
aL0L
aL0L
aL0L
aL0L
aL0L
aF0.0
aL0L
aL0L
aL0L
aF0.0
aL0L
aL0L
aL0L
aL0L
aL0L
aF0.0
aL0L
aL0L
aL0L
aL0L
aL0L
aF0.0
aF0.0
aL0L
aF0.0
aL9L
aL0L
aL0L
aL0L
aL0L
aL0L
aL5L
aL0L
aL7L
aL0L
aL9L
aL0L
aF0.0
aF0.0
aF0.0
aL0L
aF0.0
aL0L
aL0L
aL0L
aL0L
aL0L
aL0L
aL0L
aL0L
aL0L
aL0L
aL0L
aL0L
aL0L
aL0L
aF0.0
aF0.0
aL0L
aL0L
aL9L
aL0L
aL0L
aF0.0
aF0.0
aL0L
aL0L
aL12L
aF0.0
aL0L
aL0L
aL0L
aL7L
aF0.0
aL402959L
aL2557L
aL1L
ag14
aL5L
aL0L
aL0L
aL0L
aF0.0
aL0L
aF0.0
aL0L
aL0L
aL0L
aL0L
aL0L
aL0L
aL0L
aL0L
aL0L
aL0L
aL12L
aL0L
aL0L
aL8L
aL7L
aL0L
aL7L
aL0L
aL0L
aL6L
aL10L
aL0L
aL5L
aL0L
aL0L
aL0L
aL9L
aL0L
aL0L
aL7L
aL0L
aL0L
aL0L
aL0L
aL0L
aL0L
aL0L
aL0L
aL0L
aL0L
aL0L
aL0L
aL0L
aL0L
aL0L
aL0L
aL0L
aL0L
aL0L
aL0L
aL0L
aL0L
aL0L
aL0L
aL0L
aL0L
aL0L
aL0L
aL0L
aL0L
aL0L
aL0L
aL0L
aL0L
aL0L
aL0L
aL0L
aL0L
aL0L
aL0L
aL0L
aL0L
aL0L
aL0L
aL0L
aL0L
aL0L
aL0L
aL0L
aL0L
aL0L
aL0L
aL0L
aL0L
aL0L
aL0L
aL0L
aF0.0
aF0.0
aL0L
aL0L
aL3L
aL10L
aL11L
aL0L
aL0L
aL9L
aL0L
aL0L
aL8L
aL9L
aL0L
aL0L
aL0L
aL0L
aL11L
aL0L
aL0L
aL0L
aL0L
aL0L
aL0L
aL0L
aL0L
aL0L
aF0.0
aL0L
aF0.0
aL0L
aL5L
aL0L
aL0L
aL0L
aL0L
aL0L
aL0L
aL0L
aL0L
aF0.0
aL0L
aL0L
aL0L
aF0.0
aL0L
aL0L
aL0L
aL0L
aL0L
aF0.0
aL0L
aL0L
aL0L
aL0L
aL0L
aF0.0
aF0.0
aL12L
aF0.0
aL9L
aL0L
aL0L
aL0L
aL0L
aL0L
aL5L
aL0L
aL7L
aL0L
aL9L
aL9L
aF0.0
aF0.0
aF0.0
aL0L
aF0.0
aL0L
aL0L
aL0L
aL11L
aL0L
aL0L
aL0L
aL0L
aL11L
aL0L
aL0L
aL0L
aL12L
aL0L
aF0.0
aF0.0
aL0L
aL0L
aL9L
aL0L
aL7L
aF0.0
aF0.0
aL0L
aL0L
aL12L
aF0.0
aL0L
aL8L
aL0L
aL7L
aF0.0
aL402963L
aL2556L
aL1L
ag14
aL9L
aL0L
aL0L
aL0L
aF0.0
aL0L
aF0.0
aL0L
aL0L
aL0L
aL0L
aL0L
aL0L
aL0L
aL0L
aL0L
aL11L
aL0L
aL0L
aL0L
aL9L
aL8L
aL0L
aL9L
aL0L
aL0L
aL0L
aL0L
aL0L
aL0L
aL0L
aL0L
aL0L
aL0L
aL0L
aL0L
aL0L
aL0L
aL0L
aL0L
aL0L
aL0L
aL0L
aL0L
aL0L
aL0L
aL0L
aL0L
aL0L
aL0L
aL0L
aL0L
aL0L
aL0L
aL0L
aL0L
aL0L
aL0L
aL0L
aL0L
aL0L
aL0L
aL0L
aL0L
aL0L
aL0L
aL0L
aL0L
aL0L
aL0L
aL0L
aL0L
aL0L
aL0L
aL0L
aL0L
aL0L
aL0L
aL0L
aL0L
aL0L
aL0L
aL0L
aL0L
aL0L
aL0L
aL0L
aL0L
aL0L
aL0L
aL0L
aL0L
aL0L
aL0L
aF0.0
aF0.0
aL0L
aL0L
aL0L
aL0L
aL12L
aL0L
aL0L
aL0L
aL0L
aL0L
aL0L
aL0L
aL0L
aL0L
aL0L
aL0L
aL0L
aL0L
aL0L
aL0L
aL0L
aL0L
aL0L
aL0L
aL0L
aL0L
aF0.0
aL0L
aF0.0
aL0L
aL5L
aL0L
aL0L
aL0L
aL0L
aL0L
aL0L
aL0L
aL0L
aF0.0
aL0L
aL0L
aL0L
aF0.0
aL0L
aL0L
aL0L
aL0L
aL0L
aF0.0
aL0L
aL0L
aL0L
aL0L
aL0L
aF0.0
aF0.0
aL0L
aF0.0
aL13L
aL0L
aL0L
aL0L
aL0L
aL0L
aL7L
aL0L
aL8L
aL0L
aL9L
aL0L
aF0.0
aF0.0
aF0.0
aL0L
aF0.0
aL0L
aL0L
aL0L
aL0L
aL0L
aL0L
aL0L
aL0L
aL0L
aL0L
aL0L
aL0L
aL0L
aL0L
aF0.0
aF0.0
aL0L
aL0L
aL10L
aL0L
aL0L
aF0.0
aF0.0
aL0L
aL0L
aL12L
aF0.0
aL0L
aL0L
aL0L
aL9L
aF0.0
aL402965L
aL2556L
aL1L
ag14
aL9L
aL0L
aL0L
aL0L
aF0.0
aL0L
aF0.0
aL0L
aL0L
aL0L
aL0L
aL0L
aL0L
aL0L
aL0L
aL0L
aL0L
aL0L
aL0L
aL0L
aL8L
aL8L
aL0L
aL7L
aL0L
aL0L
aL0L
aL0L
aL0L
aL0L
aL0L
aL0L
aL0L
aL0L
aL0L
aL0L
aL0L
aL0L
aL0L
aL0L
aL0L
aL0L
aL0L
aL0L
aL0L
aL0L
aL0L
aL0L
aL0L
aL0L
aL0L
aL0L
aL0L
aL0L
aL0L
aL0L
aL0L
aL0L
aL0L
aL0L
aL0L
aL0L
aL0L
aL0L
aL0L
aL0L
aL0L
aL0L
aL0L
aL0L
aL0L
aL0L
aL0L
aL0L
aL0L
aL0L
aL0L
aL0L
aL0L
aL0L
aL0L
aL0L
aL0L
aL0L
aL0L
aL0L
aL0L
aL0L
aL0L
aL0L
aL0L
aL0L
aL0L
aL0L
aF0.0
aF0.0
aL0L
aL0L
aL3L
aL11L
aL11L
aL0L
aL0L
aL0L
aL0L
aL0L
aL0L
aL0L
aL0L
aL0L
aL0L
aL0L
aL0L
aL0L
aL0L
aL0L
aL0L
aL0L
aL0L
aL0L
aL0L
aL0L
aF0.0
aL0L
aF0.0
aL0L
aL5L
aL0L
aL0L
aL0L
aL0L
aL0L
aL0L
aL0L
aL0L
aF0.0
aL0L
aL0L
aL0L
aF0.0
aL0L
aL0L
aL0L
aL0L
aL0L
aF0.0
aL0L
aL0L
aL0L
aL0L
aL0L
aF0.0
aF0.0
aL0L
aF0.0
aL10L
aL0L
aL0L
aL0L
aL0L
aL0L
aL5L
aL0L
aL10L
aL0L
aL9L
aL0L
aF0.0
aF0.0
aF0.0
aL0L
aF0.0
aL0L
aL0L
aL0L
aL0L
aL0L
aL0L
aL0L
aL0L
aL0L
aL0L
aL0L
aL0L
aL0L
aL0L
aF0.0
aF0.0
aL0L
aL0L
aL10L
aL0L
aL0L
aF0.0
aF0.0
aL0L
aL0L
aL10L
aF0.0
aL0L
aL0L
aL0L
aL7L
aF0.0
aL402966L
aL2556L
aL1L
ag14
aL6L
aL0L
aL0L
aL0L
aF0.0
aL0L
aF0.0
aL0L
aL0L
aL0L
aL0L
aL0L
aL0L
aL0L
aL0L
aL0L
aL12L
aL0L
aL0L
aL0L
aL10L
aL11L
aL0L
aL9L
aL0L
aL0L
aL0L
aL0L
aL0L
aL0L
aL0L
aL0L
aL0L
aL0L
aL0L
aL0L
aL0L
aL0L
aL0L
aL0L
aL0L
aL0L
aL0L
aL0L
aL0L
aL0L
aL0L
aL0L
aL0L
aL0L
aL0L
aL0L
aL0L
aL0L
aL0L
aL0L
aL0L
aL0L
aL0L
aL0L
aL0L
aL0L
aL0L
aL0L
aL0L
aL0L
aL0L
aL0L
aL0L
aL0L
aL0L
aL0L
aL0L
aL0L
aL0L
aL0L
aL0L
aL0L
aL0L
aL0L
aL0L
aL0L
aL0L
aL0L
aL0L
aL0L
aL0L
aL0L
aL0L
aL0L
aL0L
aL0L
aL0L
aL0L
aF0.0
aF0.0
aL0L
aL0L
aL3L
aL8L
aL5L
aL0L
aL0L
aL0L
aL0L
aL0L
aL0L
aL0L
aL0L
aL0L
aL0L
aL0L
aL0L
aL0L
aL0L
aL0L
aL0L
aL0L
aL0L
aL0L
aL0L
aL0L
aF0.0
aL0L
aF0.0
aL0L
aL9L
aL0L
aL0L
aL0L
aL0L
aL0L
aL0L
aL0L
aL0L
aF0.0
aL0L
aL0L
aL0L
aF0.0
aL0L
aL0L
aL0L
aL0L
aL0L
aF0.0
aL0L
aL0L
aL0L
aL0L
aL0L
aF0.0
aF0.0
aL0L
aF0.0
aL8L
aL0L
aL0L
aL0L
aL0L
aL0L
aL5L
aL0L
aL7L
aL0L
aL0L
aL0L
aF0.0
aF0.0
aF0.0
aL0L
aF0.0
aL0L
aL0L
aL0L
aL0L
aL0L
aL0L
aL0L
aL0L
aL0L
aL0L
aL0L
aL0L
aL0L
aL0L
aF0.0
aF0.0
aL0L
aL0L
aL9L
aL0L
aL0L
aF0.0
aF0.0
aL0L
aL0L
aL12L
aF0.0
aL0L
aL0L
aL0L
aL5L
aF0.0
aL402967L
aL2556L
aL1L
ag14
aL9L
aL0L
aL0L
aL0L
aF0.0
aL0L
aF0.0
aL0L
aL0L
aL0L
aL0L
aL0L
aL0L
aL0L
aL0L
aL11L
aL0L
aL0L
aL0L
aL0L
aL9L
aL9L
aL0L
aL7L
aL0L
aL0L
aL0L
aL0L
aL0L
aL0L
aL0L
aL0L
aL0L
aL0L
aL0L
aL0L
aL0L
aL0L
aL0L
aL0L
aL0L
aL0L
aL0L
aL0L
aL0L
aL0L
aL0L
aL0L
aL0L
aL0L
aL0L
aL0L
aL0L
aL0L
aL0L
aL0L
aL0L
aL0L
aL0L
aL0L
aL0L
aL0L
aL0L
aL0L
aL0L
aL0L
aL0L
aL0L
aL0L
aL0L
aL0L
aL0L
aL0L
aL0L
aL0L
aL0L
aL0L
aL0L
aL0L
aL0L
aL0L
aL0L
aL0L
aL0L
aL0L
aL0L
aL0L
aL0L
aL0L
aL0L
aL0L
aL0L
aL0L
aL0L
aF0.0
aF0.0
aL0L
aL0L
aL0L
aL7L
aL9L
aL0L
aL0L
aL0L
aL0L
aL0L
aL0L
aL0L
aL0L
aL0L
aL0L
aL0L
aL0L
aL0L
aL0L
aL0L
aL0L
aL0L
aL0L
aL0L
aL0L
aL0L
aF0.0
aL0L
aF0.0
aL0L
aL7L
aL0L
aL0L
aL0L
aL0L
aL0L
aL0L
aL0L
aL0L
aF0.0
aL0L
aL0L
aL0L
aF0.0
aL0L
aL0L
aL0L
aL0L
aL0L
aF0.0
aL0L
aL0L
aL0L
aL0L
aL0L
aF0.0
aF0.0
aL0L
aF0.0
aL12L
aL0L
aL0L
aL0L
aL0L
aL0L
aL5L
aL0L
aL9L
aL0L
aL9L
aL0L
aF0.0
aF0.0
aF0.0
aL0L
aF0.0
aL0L
aL0L
aL0L
aL0L
aL0L
aL0L
aL0L
aL0L
aL0L
aL0L
aL0L
aL0L
aL0L
aL0L
aF0.0
aF0.0
aL0L
aL0L
aL11L
aL0L
aL0L
aF0.0
aF0.0
aL0L
aL0L
aL12L
aF0.0
aL0L
aL0L
aL0L
aL10L
aF0.0
aL402968L
aL2556L
aL1L
ag14
aL8L
aL0L
aL0L
aL0L
aF0.0
aL0L
aF0.0
aL0L
aL0L
aL0L
aL0L
aL0L
aL0L
aL0L
aL0L
aL0L
aL0L
aL0L
aL0L
aL0L
aL10L
aL8L
aL0L
aL6L
aL0L
aL0L
aL0L
aL0L
aL0L
aL0L
aL0L
aL0L
aL0L
aL0L
aL0L
aL0L
aL0L
aL0L
aL0L
aL0L
aL0L
aL0L
aL0L
aL0L
aL0L
aL0L
aL0L
aL0L
aL0L
aL0L
aL0L
aL0L
aL0L
aL0L
aL0L
aL0L
aL0L
aL0L
aL0L
aL0L
aL0L
aL0L
aL0L
aL0L
aL0L
aL0L
aL0L
aL0L
aL0L
aL0L
aL0L
aL0L
aL0L
aL0L
aL0L
aL0L
aL0L
aL0L
aL0L
aL0L
aL0L
aL0L
aL0L
aL0L
aL0L
aL0L
aL0L
aL0L
aL0L
aL0L
aL0L
aL0L
aL0L
aL0L
aF0.0
aF0.0
aL0L
aL0L
aL0L
aL10L
aL8L
aL0L
aL0L
aL0L
aL0L
aL0L
aL0L
aL0L
aL0L
aL0L
aL0L
aL0L
aL0L
aL0L
aL0L
aL0L
aL0L
aL0L
aL0L
aL0L
aL0L
aL0L
aF0.0
aL0L
aF0.0
aL0L
aL7L
aL0L
aL0L
aL0L
aL0L
aL0L
aL0L
aL0L
aL0L
aF0.0
aL0L
aL0L
aL0L
aF0.0
aL0L
aL0L
aL0L
aL0L
aL0L
aF0.0
aL0L
aL0L
aL0L
aL0L
aL0L
aF0.0
aF0.0
aL0L
aF0.0
aL9L
aL0L
aL0L
aL0L
aL0L
aL0L
aL5L
aL0L
aL8L
aL0L
aL0L
aL0L
aF0.0
aF0.0
aF0.0
aL0L
aF0.0
aL0L
aL0L
aL0L
aL0L
aL0L
aL0L
aL0L
aL0L
aL0L
aL0L
aL0L
aL0L
aL0L
aL0L
aF0.0
aF0.0
aL0L
aL0L
aL9L
aL0L
aL0L
aF0.0
aF0.0
aL0L
aL0L
aL11L
aF0.0
aL0L
aL0L
aL0L
aL8L
aF0.0
aL402971L
aL2556L
aL1L
ag14
aL8L
aL0L
aL0L
aL0L
aF0.0
aL0L
aF0.0
aL0L
aL0L
aL0L
aL0L
aL0L
aL0L
aL0L
aL0L
aL0L
aL0L
aL0L
aL0L
aL0L
aL9L
aL11L
aL0L
aL8L
aL0L
aL0L
aL0L
aL0L
aL0L
aL0L
aL0L
aL0L
aL0L
aL0L
aL0L
aL0L
aL0L
aL0L
aL0L
aL0L
aL0L
aL0L
aL0L
aL0L
aL0L
aL0L
aL0L
aL0L
aL0L
aL0L
aL0L
aL0L
aL0L
aL0L
aL0L
aL0L
aL0L
aL0L
aL0L
aL0L
aL0L
aL0L
aL0L
aL0L
aL0L
aL0L
aL0L
aL0L
aL0L
aL0L
aL0L
aL0L
aL0L
aL0L
aL0L
aL0L
aL0L
aL0L
aL0L
aL0L
aL0L
aL0L
aL0L
aL0L
aL0L
aL0L
aL0L
aL0L
aL0L
aL0L
aL0L
aL0L
aL0L
aL0L
aF0.0
aF0.0
aL0L
aL0L
aL3L
aL8L
aL13L
aL0L
aL0L
aL0L
aL0L
aL0L
aL0L
aL0L
aL0L
aL0L
aL0L
aL0L
aL0L
aL0L
aL0L
aL0L
aL0L
aL0L
aL0L
aL0L
aL0L
aL0L
aF0.0
aL0L
aF0.0
aL0L
aL6L
aL0L
aL0L
aL0L
aL0L
aL0L
aL0L
aL0L
aL0L
aF0.0
aL0L
aL0L
aL0L
aF0.0
aL0L
aL0L
aL0L
aL0L
aL0L
aF0.0
aL0L
aL0L
aL0L
aL0L
aL0L
aF0.0
aF0.0
aL0L
aF0.0
aL9L
aL0L
aL0L
aL0L
aL0L
aL0L
aL8L
aL0L
aL9L
aL0L
aL8L
aL0L
aF0.0
aF0.0
aF0.0
aL0L
aF0.0
aL0L
aL0L
aL0L
aL0L
aL0L
aL0L
aL0L
aL0L
aL0L
aL0L
aL0L
aL0L
aL0L
aL0L
aF0.0
aF0.0
aL0L
aL0L
aL9L
aL0L
aL0L
aF0.0
aF0.0
aL0L
aL0L
aL8L
aF0.0
aL0L
aL0L
aL0L
aL8L
aF0.0
aL403243L
aL2557L
aL1L
ag14
aL6L
aL0L
aL0L
aL0L
aF0.0
aL0L
aF0.0
aL0L
aL0L
aL0L
aL0L
aL0L
aL0L
aL0L
aL0L
aL0L
aL0L
aL13L
aL0L
aL0L
aL7L
aL8L
aL0L
aL5L
aL0L
aL0L
aL0L
aL9L
aL0L
aL0L
aL0L
aL0L
aL0L
aL10L
aL0L
aL0L
aL0L
aL0L
aL0L
aL0L
aL0L
aL0L
aL0L
aL0L
aL0L
aL0L
aL0L
aL0L
aL0L
aL0L
aL0L
aL0L
aL0L
aL0L
aL0L
aL0L
aL0L
aL0L
aL0L
aL0L
aL0L
aL0L
aL0L
aL0L
aL0L
aL0L
aL0L
aL0L
aL0L
aL0L
aL0L
aL0L
aL0L
aL0L
aL0L
aL0L
aL0L
aL0L
aL0L
aL0L
aL0L
aL0L
aL0L
aL0L
aL0L
aL0L
aL0L
aL0L
aL0L
aL0L
aL0L
aL0L
aL0L
aL0L
aF0.0
aF0.0
aL0L
aL0L
aL0L
aL7L
aL5L
aL0L
aL0L
aL8L
aL0L
aL0L
aL0L
aL0L
aL0L
aL0L
aL0L
aL0L
aL13L
aL0L
aL0L
aL0L
aL0L
aL0L
aL0L
aL0L
aL0L
aL0L
aF0.0
aL0L
aF0.0
aL0L
aL5L
aL0L
aL0L
aL0L
aL0L
aL0L
aL0L
aL0L
aL0L
aF0.0
aL0L
aL0L
aL0L
aF0.0
aL0L
aL0L
aL0L
aL0L
aL0L
aF0.0
aL0L
aL0L
aL0L
aL0L
aL0L
aF0.0
aF0.0
aL13L
aF0.0
aL12L
aL0L
aL0L
aL0L
aL0L
aL0L
aL0L
aL0L
aL7L
aL0L
aL8L
aL0L
aF0.0
aF0.0
aF0.0
aL0L
aF0.0
aL0L
aL0L
aL0L
aL12L
aL0L
aL0L
aL0L
aL0L
aL9L
aL0L
aL0L
aL0L
aL11L
aL0L
aF0.0
aF0.0
aL0L
aL0L
aL7L
aL0L
aL7L
aF0.0
aF0.0
aL0L
aL0L
aL11L
aF0.0
aL0L
aL9L
aL0L
aL5L
aF0.0
aL403244L
aL2556L
aL1L
ag14
aL9L
aL0L
aL0L
aL0L
aF0.0
aL0L
aF0.0
aL0L
aL0L
aL0L
aL0L
aL0L
aL0L
aL0L
aL0L
aL0L
aL0L
aL0L
aL0L
aL0L
aL10L
aL10L
aL0L
aL9L
aL0L
aL0L
aL0L
aL0L
aL0L
aL0L
aL0L
aL0L
aL0L
aL0L
aL0L
aL0L
aL0L
aL0L
aL0L
aL0L
aL0L
aL0L
aL0L
aL0L
aL0L
aL0L
aL0L
aL0L
aL0L
aL0L
aL0L
aL0L
aL0L
aL0L
aL0L
aL0L
aL0L
aL0L
aL0L
aL0L
aL0L
aL0L
aL0L
aL0L
aL0L
aL0L
aL0L
aL0L
aL0L
aL0L
aL0L
aL0L
aL0L
aL0L
aL0L
aL0L
aL0L
aL0L
aL0L
aL0L
aL0L
aL0L
aL0L
aL0L
aL0L
aL0L
aL0L
aL0L
aL0L
aL0L
aL0L
aL0L
aL0L
aL0L
aF0.0
aF0.0
aL0L
aL0L
aL3L
aL11L
aL10L
aL0L
aL0L
aL0L
aL0L
aL0L
aL0L
aL0L
aL0L
aL0L
aL0L
aL0L
aL0L
aL0L
aL0L
aL0L
aL0L
aL0L
aL0L
aL0L
aL0L
aL0L
aF0.0
aL0L
aF0.0
aL0L
aL5L
aL0L
aL0L
aL0L
aL0L
aL0L
aL0L
aL0L
aL0L
aF0.0
aL0L
aL0L
aL0L
aF0.0
aL0L
aL0L
aL0L
aL0L
aL0L
aF0.0
aL0L
aL0L
aL0L
aL0L
aL0L
aF0.0
aF0.0
aL0L
aF0.0
aL11L
aL0L
aL0L
aL0L
aL0L
aL0L
aL9L
aL0L
aL9L
aL0L
aL9L
aL0L
aF0.0
aF0.0
aF0.0
aL0L
aF0.0
aL0L
aL0L
aL0L
aL0L
aL0L
aL0L
aL0L
aL0L
aL0L
aL0L
aL0L
aL0L
aL0L
aL0L
aF0.0
aF0.0
aL0L
aL0L
aL10L
aL0L
aL0L
aF0.0
aF0.0
aL0L
aL0L
aL12L
aF0.0
aL0L
aL0L
aL0L
aL9L
aF0.0
aL403246L
aL2556L
aL1L
ag14
aL6L
aL0L
aL0L
aL0L
aF0.0
aL0L
aF0.0
aL0L
aL0L
aL0L
aL0L
aL0L
aL0L
aL0L
aL0L
aL0L
aL0L
aL0L
aL0L
aL0L
aL7L
aL7L
aL0L
aL8L
aL0L
aL0L
aL0L
aL0L
aL0L
aL0L
aL0L
aL0L
aL0L
aL0L
aL0L
aL0L
aL0L
aL0L
aL0L
aL0L
aL0L
aL0L
aL0L
aL0L
aL0L
aL0L
aL0L
aL0L
aL0L
aL0L
aL0L
aL0L
aL0L
aL0L
aL0L
aL0L
aL0L
aL0L
aL0L
aL0L
aL0L
aL0L
aL0L
aL0L
aL0L
aL0L
aL0L
aL0L
aL0L
aL0L
aL0L
aL0L
aL0L
aL0L
aL0L
aL0L
aL0L
aL0L
aL0L
aL0L
aL0L
aL0L
aL0L
aL0L
aL0L
aL0L
aL0L
aL0L
aL0L
aL0L
aL0L
aL0L
aL0L
aL0L
aF0.0
aF0.0
aL0L
aL0L
aL0L
aL8L
aL7L
aL0L
aL0L
aL0L
aL0L
aL0L
aL0L
aL0L
aL0L
aL0L
aL0L
aL0L
aL0L
aL0L
aL0L
aL0L
aL0L
aL0L
aL0L
aL0L
aL0L
aL0L
aF0.0
aL0L
aF0.0
aL0L
aL5L
aL0L
aL0L
aL0L
aL0L
aL0L
aL0L
aL0L
aL0L
aF0.0
aL0L
aL0L
aL0L
aF0.0
aL0L
aL0L
aL0L
aL0L
aL0L
aF0.0
aL0L
aL0L
aL0L
aL0L
aL0L
aF0.0
aF0.0
aL0L
aF0.0
aL11L
aL0L
aL0L
aL0L
aL0L
aL0L
aL5L
aL0L
aL9L
aL0L
aL8L
aL0L
aF0.0
aF0.0
aF0.0
aL0L
aF0.0
aL0L
aL0L
aL0L
aL0L
aL0L
aL0L
aL0L
aL0L
aL0L
aL0L
aL0L
aL0L
aL0L
aL0L
aF0.0
aF0.0
aL0L
aL0L
aL10L
aL0L
aL0L
aF0.0
aF0.0
aL0L
aL0L
aL12L
aF0.0
aL0L
aL0L
aL0L
aL5L
aF0.0
aL413803L
aL2557L
aL1L
ag14
aL13L
aL0L
aL0L
aL0L
aF0.0
aL0L
aF0.0
aL0L
aL0L
aL0L
aL0L
aL0L
aL0L
aL0L
aL0L
aL0L
aL0L
aL0L
aL0L
aL0L
aL13L
aL13L
aL13L
aL13L
aL13L
aL0L
aL0L
aL0L
aL0L
aL0L
aL0L
aL0L
aL0L
aL0L
aL0L
aL0L
aL0L
aL0L
aL0L
aL0L
aL0L
aL0L
aL0L
aL0L
aL0L
aL0L
aL0L
aL0L
aL0L
aL0L
aL0L
aL0L
aL0L
aL0L
aL0L
aL0L
aL0L
aL0L
aL0L
aL0L
aL0L
aL0L
aL0L
aL0L
aL0L
aL0L
aL0L
aL0L
aL0L
aL0L
aL0L
aL0L
aL0L
aL0L
aL0L
aL0L
aL0L
aL0L
aL0L
aL0L
aL0L
aL0L
aL0L
aL0L
aL0L
aL0L
aL0L
aL0L
aL0L
aL0L
aL0L
aL0L
aL0L
aL0L
aF0.0
aF0.0
aL0L
aL0L
aL0L
aL12L
aL10L
aL0L
aL0L
aL0L
aL0L
aL0L
aL0L
aL0L
aL0L
aL0L
aL0L
aL0L
aL0L
aL0L
aL0L
aL0L
aL0L
aL0L
aL0L
aL0L
aL0L
aL0L
aF0.0
aL0L
aF0.0
aL0L
aL13L
aL0L
aL0L
aL0L
aL0L
aL0L
aL0L
aL0L
aL0L
aF0.0
aL0L
aL0L
aL0L
aF0.0
aL0L
aL0L
aL0L
aL0L
aL0L
aF0.0
aL0L
aL0L
aL0L
aL0L
aL0L
aF0.0
aF0.0
aL0L
aF0.0
aL0L
aL0L
aL0L
aL0L
aL0L
aL0L
aL11L
aL0L
aL12L
aL0L
aL0L
aL0L
aF0.0
aF0.0
aF0.0
aL0L
aF0.0
aL0L
aL0L
aL0L
aL0L
aL0L
aL0L
aL0L
aL0L
aL0L
aL0L
aL0L
aL0L
aL0L
aL0L
aF0.0
aF0.0
aL0L
aL0L
aL13L
aL13L
aL12L
aF0.0
aF0.0
aL0L
aL0L
aL13L
aF0.0
aL0L
aL12L
aL0L
aL13L
aF0.0
aL413804L
aL2557L
aL1L
ag14
aL6L
aL0L
aL0L
aL0L
aF0.0
aL0L
aF0.0
aL0L
aL0L
aL0L
aL0L
aL0L
aL0L
aL0L
aL0L
aL0L
aL0L
aL0L
aL0L
aL0L
aL9L
aL9L
aL7L
aL6L
aL0L
aL0L
aL0L
aL0L
aL0L
aL0L
aL0L
aL0L
aL0L
aL0L
aL0L
aL0L
aL0L
aL0L
aL0L
aL0L
aL0L
aL0L
aL0L
aL0L
aL0L
aL0L
aL0L
aL0L
aL0L
aL0L
aL0L
aL0L
aL0L
aL0L
aL0L
aL0L
aL0L
aL0L
aL0L
aL0L
aL0L
aL0L
aL0L
aL0L
aL0L
aL0L
aL0L
aL0L
aL0L
aL0L
aL0L
aL0L
aL0L
aL0L
aL0L
aL0L
aL0L
aL0L
aL0L
aL0L
aL0L
aL0L
aL0L
aL0L
aL0L
aL0L
aL0L
aL0L
aL0L
aL0L
aL0L
aL0L
aL0L
aL0L
aF0.0
aF0.0
aL0L
aL0L
aL3L
aL10L
aL9L
aL0L
aL0L
aL0L
aL0L
aL0L
aL0L
aL0L
aL0L
aL0L
aL0L
aL0L
aL0L
aL0L
aL0L
aL0L
aL0L
aL0L
aL0L
aL0L
aL0L
aL0L
aF0.0
aL0L
aF0.0
aL0L
aL5L
aL0L
aL0L
aL0L
aL0L
aL0L
aL0L
aL0L
aL0L
aF0.0
aL0L
aL0L
aL0L
aF0.0
aL0L
aL0L
aL0L
aL0L
aL10L
aF0.0
aL0L
aL0L
aL0L
aL0L
aL0L
aF0.0
aF0.0
aL0L
aF0.0
aL11L
aL0L
aL0L
aL0L
aL0L
aL7L
aL0L
aL10L
aL0L
aL0L
aL0L
aL0L
aF0.0
aF0.0
aF0.0
aL0L
aF0.0
aL0L
aL0L
aL0L
aL0L
aL0L
aL0L
aL0L
aL0L
aL0L
aL0L
aL0L
aL0L
aL0L
aL0L
aF0.0
aF0.0
aL0L
aL0L
aL12L
aL13L
aL10L
aF0.0
aF0.0
aL0L
aL0L
aL10L
aF0.0
aL0L
aL10L
aL0L
aL7L
aF0.0
aL413805L
aL2557L
aL1L
ag14
aL13L
aL0L
aL0L
aL0L
aF0.0
aL0L
aF0.0
aL0L
aL0L
aL0L
aL0L
aL0L
aL0L
aL0L
aL0L
aL0L
aL0L
aL0L
aL0L
aL0L
aL13L
aL13L
aL13L
aL13L
aL13L
aL0L
aL0L
aL0L
aL0L
aL0L
aL0L
aL0L
aL0L
aL0L
aL0L
aL0L
aL0L
aL0L
aL0L
aL0L
aL0L
aL0L
aL0L
aL0L
aL0L
aL0L
aL0L
aL0L
aL0L
aL0L
aL0L
aL0L
aL0L
aL0L
aL0L
aL0L
aL0L
aL0L
aL0L
aL0L
aL0L
aL0L
aL0L
aL0L
aL0L
aL0L
aL0L
aL0L
aL0L
aL0L
aL0L
aL0L
aL0L
aL0L
aL0L
aL0L
aL0L
aL0L
aL0L
aL0L
aL0L
aL0L
aL0L
aL0L
aL0L
aL0L
aL0L
aL0L
aL0L
aL0L
aL0L
aL0L
aL0L
aL0L
aF0.0
aF0.0
aL0L
aL0L
aL0L
aL0L
aL13L
aL0L
aL0L
aL0L
aL0L
aL0L
aL0L
aL0L
aL0L
aL0L
aL0L
aL0L
aL0L
aL0L
aL0L
aL0L
aL0L
aL0L
aL0L
aL0L
aL0L
aL0L
aF0.0
aL0L
aF0.0
aL0L
aL13L
aL0L
aL0L
aL0L
aL0L
aL0L
aL0L
aL0L
aL0L
aF0.0
aL0L
aL0L
aL0L
aF0.0
aL0L
aL0L
aL0L
aL0L
aL0L
aF0.0
aL0L
aL0L
aL0L
aL0L
aL0L
aF0.0
aF0.0
aL0L
aF0.0
aL12L
aL0L
aL0L
aL0L
aL0L
aL0L
aL13L
aL0L
aL13L
aL0L
aL0L
aL0L
aF0.0
aF0.0
aF0.0
aL0L
aF0.0
aL0L
aL0L
aL0L
aL0L
aL0L
aL0L
aL0L
aL0L
aL0L
aL0L
aL0L
aL0L
aL0L
aL0L
aF0.0
aF0.0
aL0L
aL0L
aL13L
aL13L
aL12L
aF0.0
aF0.0
aL0L
aL0L
aL13L
aF0.0
aL0L
aL12L
aL0L
aL13L
aF0.0
aL413806L
aL2557L
aL1L
ag14
aL13L
aL0L
aL0L
aL0L
aF0.0
aL0L
aF0.0
aL0L
aL0L
aL0L
aL0L
aL0L
aL0L
aL0L
aL0L
aL0L
aL0L
aL0L
aL0L
aL0L
aL11L
aL13L
aL13L
aL13L
aL13L
aL0L
aL0L
aL0L
aL0L
aL0L
aL0L
aL0L
aL0L
aL0L
aL0L
aL0L
aL0L
aL0L
aL0L
aL0L
aL0L
aL0L
aL0L
aL0L
aL0L
aL0L
aL0L
aL0L
aL0L
aL0L
aL0L
aL0L
aL0L
aL0L
aL0L
aL0L
aL0L
aL0L
aL0L
aL0L
aL0L
aL0L
aL0L
aL0L
aL0L
aL0L
aL0L
aL0L
aL0L
aL0L
aL0L
aL0L
aL0L
aL0L
aL0L
aL0L
aL0L
aL0L
aL0L
aL0L
aL0L
aL0L
aL0L
aL0L
aL0L
aL0L
aL0L
aL0L
aL0L
aL0L
aL0L
aL0L
aL0L
aL0L
aF0.0
aF0.0
aL0L
aL0L
aL0L
aL0L
aL11L
aL0L
aL0L
aL0L
aL0L
aL0L
aL0L
aL0L
aL0L
aL0L
aL0L
aL0L
aL0L
aL0L
aL0L
aL0L
aL0L
aL0L
aL0L
aL0L
aL0L
aL0L
aF0.0
aL0L
aF0.0
aL0L
aL5L
aL0L
aL0L
aL0L
aL0L
aL0L
aL0L
aL0L
aL0L
aF0.0
aL0L
aL0L
aL0L
aF0.0
aL0L
aL0L
aL0L
aL0L
aL0L
aF0.0
aL0L
aL0L
aL0L
aL0L
aL0L
aF0.0
aF0.0
aL0L
aF0.0
aL9L
aL0L
aL0L
aL0L
aL0L
aL0L
aL12L
aL0L
aL12L
aL0L
aL9L
aL0L
aF0.0
aF0.0
aF0.0
aL0L
aF0.0
aL0L
aL0L
aL0L
aL0L
aL0L
aL0L
aL0L
aL0L
aL0L
aL0L
aL0L
aL0L
aL0L
aL0L
aF0.0
aF0.0
aL0L
aL0L
aL12L
aL11L
aL7L
aF0.0
aF0.0
aL0L
aL0L
aL10L
aF0.0
aL0L
aL12L
aL0L
aL10L
aF0.0
aL413807L
aL2557L
aL1L
ag14
aL13L
aL0L
aL0L
aL0L
aF0.0
aL0L
aF0.0
aL0L
aL0L
aL0L
aL0L
aL0L
aL0L
aL0L
aL0L
aL0L
aL0L
aL0L
aL0L
aL0L
aL12L
aL13L
aL13L
aL13L
aL13L
aL0L
aL0L
aL0L
aL0L
aL0L
aL0L
aL0L
aL0L
aL0L
aL0L
aL0L
aL0L
aL0L
aL0L
aL0L
aL0L
aL0L
aL0L
aL0L
aL0L
aL0L
aL0L
aL0L
aL0L
aL0L
aL0L
aL0L
aL0L
aL0L
aL0L
aL0L
aL0L
aL0L
aL0L
aL0L
aL0L
aL0L
aL0L
aL0L
aL0L
aL0L
aL0L
aL0L
aL0L
aL0L
aL0L
aL0L
aL0L
aL0L
aL0L
aL0L
aL0L
aL0L
aL0L
aL0L
aL0L
aL0L
aL0L
aL0L
aL0L
aL0L
aL0L
aL0L
aL0L
aL0L
aL0L
aL0L
aL0L
aL0L
aF0.0
aF0.0
aL0L
aL0L
aL0L
aL11L
aL10L
aL0L
aL0L
aL0L
aL0L
aL0L
aL0L
aL0L
aL0L
aL0L
aL0L
aL0L
aL0L
aL0L
aL0L
aL0L
aL0L
aL0L
aL0L
aL0L
aL0L
aL0L
aF0.0
aL0L
aF0.0
aL0L
aL9L
aL0L
aL0L
aL0L
aL0L
aL0L
aL0L
aL0L
aL0L
aF0.0
aL0L
aL0L
aL0L
aF0.0
aL0L
aL0L
aL0L
aL0L
aL0L
aF0.0
aL0L
aL0L
aL0L
aL0L
aL0L
aF0.0
aF0.0
aL0L
aF0.0
aL10L
aL0L
aL0L
aL0L
aL0L
aL13L
aL0L
aL11L
aL0L
aL0L
aL0L
aL0L
aF0.0
aF0.0
aF0.0
aL0L
aF0.0
aL0L
aL0L
aL0L
aL0L
aL0L
aL0L
aL0L
aL0L
aL0L
aL0L
aL0L
aL0L
aL0L
aL0L
aF0.0
aF0.0
aL0L
aL0L
aL11L
aL13L
aL9L
aF0.0
aF0.0
aL0L
aL0L
aL10L
aF0.0
aL0L
aL11L
aL0L
aL12L
aF0.0
aL415069L
aL2557L
aL1L
ag14
aL13L
aL0L
aL0L
aL0L
aF0.0
aL0L
aF0.0
aL0L
aL0L
aL0L
aL0L
aL0L
aL0L
aL0L
aL0L
aL0L
aL0L
aL0L
aL0L
aL0L
aL13L
aL13L
aL13L
aL13L
aL13L
aL0L
aL0L
aL0L
aL0L
aL0L
aL0L
aL0L
aL0L
aL0L
aL0L
aL0L
aL0L
aL0L
aL0L
aL0L
aL0L
aL0L
aL0L
aL0L
aL0L
aL0L
aL0L
aL0L
aL0L
aL0L
aL0L
aL0L
aL0L
aL0L
aL0L
aL0L
aL0L
aL0L
aL0L
aL0L
aL0L
aL0L
aL0L
aL0L
aL0L
aL0L
aL0L
aL0L
aL0L
aL0L
aL0L
aL0L
aL0L
aL0L
aL0L
aL0L
aL0L
aL0L
aL0L
aL0L
aL0L
aL0L
aL0L
aL0L
aL0L
aL0L
aL0L
aL0L
aL0L
aL0L
aL0L
aL0L
aL0L
aL0L
aF0.0
aF0.0
aL0L
aL0L
aL0L
aL13L
aL12L
aL0L
aL0L
aL0L
aL0L
aL0L
aL0L
aL0L
aL0L
aL0L
aL0L
aL0L
aL0L
aL0L
aL0L
aL0L
aL0L
aL0L
aL0L
aL0L
aL0L
aL0L
aF0.0
aL0L
aF0.0
aL0L
aL9L
aL0L
aL0L
aL0L
aL0L
aL0L
aL0L
aL0L
aL0L
aF0.0
aL0L
aL0L
aL0L
aF0.0
aL0L
aL0L
aL0L
aL0L
aL0L
aF0.0
aL0L
aL0L
aL0L
aL0L
aL0L
aF0.0
aF0.0
aL0L
aF0.0
aL9L
aL0L
aL0L
aL0L
aL0L
aL0L
aL10L
aL0L
aL10L
aL0L
aL0L
aL0L
aF0.0
aF0.0
aF0.0
aL0L
aF0.0
aL0L
aL0L
aL0L
aL0L
aL0L
aL0L
aL0L
aL0L
aL0L
aL0L
aL0L
aL0L
aL0L
aL0L
aF0.0
aF0.0
aL0L
aL0L
aL13L
aL11L
aL10L
aF0.0
aF0.0
aL0L
aL0L
aL10L
aF0.0
aL0L
aL11L
aL0L
aL13L
aF0.0
aL415070L
aL2557L
aL1L
ag14
aL6L
aL0L
aL0L
aL0L
aF0.0
aL0L
aF0.0
aL0L
aL0L
aL0L
aL0L
aL0L
aL0L
aL0L
aL0L
aL0L
aL0L
aL0L
aL0L
aL0L
aL9L
aL9L
aL5L
aL6L
aL0L
aL0L
aL0L
aL0L
aL0L
aL0L
aL0L
aL0L
aL0L
aL0L
aL0L
aL0L
aL0L
aL0L
aL0L
aL0L
aL0L
aL0L
aL0L
aL0L
aL0L
aL0L
aL0L
aL0L
aL0L
aL0L
aL0L
aL0L
aL0L
aL0L
aL0L
aL0L
aL0L
aL0L
aL0L
aL0L
aL0L
aL0L
aL0L
aL0L
aL0L
aL0L
aL0L
aL0L
aL0L
aL0L
aL0L
aL0L
aL0L
aL0L
aL0L
aL0L
aL0L
aL0L
aL0L
aL0L
aL0L
aL0L
aL0L
aL0L
aL0L
aL0L
aL0L
aL0L
aL0L
aL0L
aL0L
aL0L
aL0L
aL0L
aF0.0
aF0.0
aL0L
aL0L
aL3L
aL7L
aL5L
aL0L
aL0L
aL0L
aL0L
aL0L
aL0L
aL0L
aL0L
aL0L
aL0L
aL0L
aL0L
aL0L
aL0L
aL0L
aL0L
aL0L
aL0L
aL0L
aL0L
aL0L
aF0.0
aL0L
aF0.0
aL0L
aL5L
aL0L
aL0L
aL0L
aL0L
aL0L
aL0L
aL0L
aL0L
aF0.0
aL0L
aL0L
aL0L
aF0.0
aL0L
aL0L
aL0L
aL0L
aL0L
aF0.0
aL0L
aL0L
aL0L
aL0L
aL0L
aF0.0
aF0.0
aL0L
aF0.0
aL9L
aL0L
aL0L
aL0L
aL0L
aL0L
aL5L
aL0L
aL10L
aL0L
aL0L
aL0L
aF0.0
aF0.0
aF0.0
aL7L
aF0.0
aL0L
aL0L
aL0L
aL0L
aL0L
aL0L
aL0L
aL0L
aL0L
aL0L
aL0L
aL0L
aL0L
aL0L
aF0.0
aF0.0
aL0L
aL0L
aL11L
aL11L
aL10L
aF0.0
aF0.0
aL0L
aL0L
aL9L
aF0.0
aL0L
aL9L
aL0L
aL7L
aF0.0
aL415071L
aL2557L
aL1L
ag14
aL6L
aL0L
aL0L
aL0L
aF0.0
aL0L
aF0.0
aL0L
aL0L
aL0L
aL0L
aL0L
aL0L
aL0L
aL0L
aL0L
aL0L
aL0L
aL0L
aL0L
aL10L
aL9L
aL7L
aL7L
aL0L
aL0L
aL0L
aL0L
aL0L
aL0L
aL0L
aL0L
aL0L
aL0L
aL0L
aL0L
aL0L
aL0L
aL0L
aL0L
aL0L
aL0L
aL0L
aL0L
aL0L
aL0L
aL0L
aL0L
aL0L
aL0L
aL0L
aL0L
aL0L
aL0L
aL0L
aL0L
aL0L
aL0L
aL0L
aL0L
aL0L
aL0L
aL0L
aL0L
aL0L
aL0L
aL0L
aL0L
aL0L
aL0L
aL0L
aL0L
aL0L
aL0L
aL0L
aL0L
aL0L
aL0L
aL0L
aL0L
aL0L
aL0L
aL0L
aL0L
aL0L
aL0L
aL0L
aL0L
aL0L
aL0L
aL0L
aL0L
aL0L
aL0L
aF0.0
aF0.0
aL0L
aL0L
aL0L
aL8L
aL8L
aL0L
aL0L
aL0L
aL0L
aL0L
aL0L
aL0L
aL0L
aL0L
aL0L
aL0L
aL0L
aL0L
aL0L
aL0L
aL0L
aL0L
aL0L
aL0L
aL0L
aL0L
aF0.0
aL0L
aF0.0
aL0L
aL0L
aL0L
aL0L
aL0L
aL0L
aL0L
aL0L
aL0L
aL0L
aF0.0
aL0L
aL0L
aL0L
aF0.0
aL0L
aL0L
aL0L
aL0L
aL0L
aF0.0
aL0L
aL0L
aL12L
aL12L
aL12L
aF0.0
aF0.0
aL0L
aF0.0
aL8L
aL0L
aL0L
aL0L
aL0L
aL8L
aL0L
aL9L
aL0L
aL0L
aL0L
aL0L
aF0.0
aF0.0
aF0.0
aL9L
aF0.0
aL0L
aL0L
aL0L
aL0L
aL0L
aL0L
aL0L
aL0L
aL0L
aL0L
aL0L
aL0L
aL0L
aL0L
aF0.0
aF0.0
aL0L
aL0L
aL12L
aL11L
aL8L
aF0.0
aF0.0
aL0L
aL0L
aL10L
aF0.0
aL0L
aL9L
aL0L
aL9L
aF0.0
aL415072L
aL2557L
aL1L
ag14
aL10L
aL0L
aL0L
aL0L
aF0.0
aL0L
aF0.0
aL0L
aL0L
aL0L
aL0L
aL0L
aL0L
aL0L
aL0L
aL0L
aL0L
aL0L
aL0L
aL0L
aL9L
aL10L
aL5L
aL10L
aL0L
aL0L
aL0L
aL0L
aL0L
aL0L
aL0L
aL0L
aL0L
aL0L
aL0L
aL0L
aL0L
aL0L
aL0L
aL0L
aL0L
aL0L
aL0L
aL0L
aL0L
aL0L
aL0L
aL0L
aL0L
aL0L
aL0L
aL0L
aL0L
aL0L
aL0L
aL0L
aL0L
aL0L
aL0L
aL0L
aL0L
aL0L
aL0L
aL0L
aL0L
aL0L
aL0L
aL0L
aL0L
aL0L
aL0L
aL0L
aL0L
aL0L
aL0L
aL0L
aL0L
aL0L
aL0L
aL0L
aL0L
aL0L
aL0L
aL0L
aL0L
aL0L
aL0L
aL0L
aL0L
aL0L
aL0L
aL0L
aL0L
aL0L
aF0.0
aF0.0
aL0L
aL0L
aL0L
aL10L
aL9L
aL0L
aL0L
aL0L
aL0L
aL0L
aL0L
aL0L
aL0L
aL0L
aL0L
aL0L
aL0L
aL0L
aL0L
aL0L
aL0L
aL0L
aL0L
aL0L
aL0L
aL0L
aF0.0
aL0L
aF0.0
aL0L
aL8L
aL0L
aL0L
aL0L
aL0L
aL0L
aL0L
aL0L
aL0L
aF0.0
aL0L
aL0L
aL0L
aF0.0
aL0L
aL0L
aL0L
aL0L
aL0L
aF0.0
aL0L
aL0L
aL0L
aL0L
aL0L
aF0.0
aF0.0
aL0L
aF0.0
aL11L
aL0L
aL0L
aL0L
aL0L
aL0L
aL8L
aL0L
aL9L
aL0L
aL0L
aL0L
aF0.0
aF0.0
aF0.0
aL12L
aF0.0
aL0L
aL0L
aL0L
aL0L
aL0L
aL0L
aL0L
aL0L
aL0L
aL0L
aL0L
aL0L
aL0L
aL0L
aF0.0
aF0.0
aL0L
aL0L
aL13L
aL12L
aL11L
aF0.0
aF0.0
aL0L
aL0L
aL11L
aF0.0
aL0L
aL11L
aL0L
aL9L
aF0.0
aL415073L
aL2557L
aL1L
ag14
aL6L
aL0L
aL0L
aL0L
aF0.0
aL0L
aF0.0
aL0L
aL0L
aL0L
aL0L
aL0L
aL0L
aL0L
aL0L
aL0L
aL0L
aL0L
aL0L
aL0L
aL10L
aL9L
aL11L
aL8L
aL0L
aL0L
aL0L
aL0L
aL0L
aL0L
aL0L
aL0L
aL0L
aL0L
aL0L
aL0L
aL0L
aL0L
aL0L
aL0L
aL0L
aL0L
aL0L
aL0L
aL0L
aL0L
aL0L
aL0L
aL0L
aL0L
aL0L
aL0L
aL0L
aL0L
aL0L
aL0L
aL0L
aL0L
aL0L
aL0L
aL0L
aL0L
aL0L
aL0L
aL0L
aL0L
aL0L
aL0L
aL0L
aL0L
aL0L
aL0L
aL0L
aL0L
aL0L
aL0L
aL0L
aL0L
aL0L
aL0L
aL0L
aL0L
aL0L
aL0L
aL0L
aL0L
aL0L
aL0L
aL0L
aL0L
aL0L
aL0L
aL0L
aL0L
aF0.0
aF0.0
aL0L
aL0L
aL3L
aL10L
aL10L
aL0L
aL0L
aL0L
aL0L
aL0L
aL0L
aL0L
aL0L
aL0L
aL0L
aL0L
aL0L
aL0L
aL0L
aL0L
aL0L
aL0L
aL0L
aL0L
aL0L
aL0L
aF0.0
aL0L
aF0.0
aL0L
aL7L
aL0L
aL0L
aL0L
aL0L
aL0L
aL0L
aL0L
aL0L
aF0.0
aL0L
aL0L
aL0L
aF0.0
aL0L
aL0L
aL0L
aL0L
aL0L
aF0.0
aL0L
aL0L
aL0L
aL0L
aL0L
aF0.0
aF0.0
aL0L
aF0.0
aL8L
aL0L
aL0L
aL0L
aL0L
aL7L
aL0L
aL10L
aL0L
aL0L
aL0L
aL0L
aF0.0
aF0.0
aF0.0
aL9L
aF0.0
aL0L
aL0L
aL0L
aL0L
aL0L
aL0L
aL0L
aL0L
aL0L
aL0L
aL0L
aL0L
aL0L
aL0L
aF0.0
aF0.0
aL0L
aL0L
aL11L
aL12L
aL8L
aF0.0
aF0.0
aL0L
aL0L
aL10L
aF0.0
aL0L
aL9L
aL0L
aL8L
aF0.0
aL423567L
aL2557L
aL1L
ag14
aL6L
aL0L
aL0L
aL0L
aF0.0
aL0L
aF0.0
aL0L
aL0L
aL0L
aL0L
aL0L
aL0L
aL0L
aL0L
aL0L
aL0L
aL0L
aL0L
aL0L
aL11L
aL9L
aL11L
aL6L
aL0L
aL0L
aL0L
aL0L
aL0L
aL0L
aL0L
aL0L
aL0L
aL0L
aL0L
aL0L
aL0L
aL0L
aL0L
aL0L
aL0L
aL0L
aL0L
aL0L
aL0L
aL0L
aL0L
aL0L
aL0L
aL0L
aL0L
aL0L
aL0L
aL0L
aL0L
aL0L
aL0L
aL0L
aL0L
aL0L
aL0L
aL0L
aL0L
aL0L
aL0L
aL0L
aL0L
aL0L
aL0L
aL0L
aL0L
aL0L
aL0L
aL0L
aL0L
aL0L
aL0L
aL0L
aL0L
aL0L
aL0L
aL0L
aL0L
aL0L
aL0L
aL0L
aL0L
aL0L
aL0L
aL0L
aL0L
aL0L
aL0L
aL0L
aF0.0
aF0.0
aL0L
aL0L
aL0L
aL12L
aL8L
aL0L
aL0L
aL0L
aL0L
aL0L
aL9L
aL0L
aL0L
aL0L
aL0L
aL0L
aL0L
aL0L
aL0L
aL0L
aL0L
aL0L
aL0L
aL0L
aL0L
aL0L
aF0.0
aL0L
aF0.0
aL0L
aL6L
aL0L
aL0L
aL0L
aL0L
aL0L
aL0L
aL0L
aL0L
aF0.0
aL0L
aL0L
aL0L
aF0.0
aL0L
aL0L
aL0L
aL0L
aL0L
aF0.0
aL0L
aL0L
aL0L
aL0L
aL11L
aF0.0
aF0.0
aL0L
aF0.0
aL7L
aL0L
aL0L
aL0L
aL0L
aL8L
aL0L
aL9L
aL0L
aL0L
aL0L
aL0L
aF0.0
aF0.0
aF0.0
aL0L
aF0.0
aL0L
aL0L
aL0L
aL0L
aL0L
aL0L
aL0L
aL0L
aL0L
aL0L
aL0L
aL0L
aL0L
aL0L
aF0.0
aF0.0
aL0L
aL0L
aL10L
aL11L
aL8L
aF0.0
aF0.0
aL0L
aL0L
aL9L
aF0.0
aL0L
aL5L
aL0L
aL9L
aF0.0
aL423568L
aL2557L
aL1L
ag14
aL8L
aL0L
aL0L
aL0L
aF0.0
aL0L
aF0.0
aL0L
aL0L
aL0L
aL0L
aL0L
aL0L
aL0L
aL0L
aL0L
aL0L
aL0L
aL0L
aL0L
aL11L
aL10L
aL11L
aL9L
aL10L
aL0L
aL0L
aL0L
aL0L
aL0L
aL0L
aL0L
aL0L
aL0L
aL0L
aL0L
aL0L
aL0L
aL0L
aL0L
aL0L
aL0L
aL0L
aL0L
aL0L
aL0L
aL0L
aL0L
aL0L
aL0L
aL0L
aL0L
aL0L
aL0L
aL0L
aL0L
aL0L
aL0L
aL0L
aL0L
aL0L
aL0L
aL0L
aL0L
aL0L
aL0L
aL0L
aL0L
aL0L
aL0L
aL0L
aL0L
aL0L
aL0L
aL0L
aL0L
aL0L
aL0L
aL0L
aL0L
aL0L
aL0L
aL0L
aL0L
aL0L
aL0L
aL0L
aL0L
aL0L
aL0L
aL0L
aL0L
aL0L
aL0L
aF0.0
aF0.0
aL0L
aL0L
aL0L
aL12L
aL10L
aL0L
aL0L
aL0L
aL0L
aL0L
aL0L
aL0L
aL0L
aL0L
aL0L
aL0L
aL0L
aL0L
aL0L
aL0L
aL0L
aL0L
aL0L
aL0L
aL0L
aL0L
aF0.0
aL0L
aF0.0
aL0L
aL0L
aL0L
aL0L
aL0L
aL0L
aL0L
aL0L
aL0L
aL0L
aF0.0
aL0L
aL0L
aL0L
aF0.0
aL0L
aL0L
aL0L
aL0L
aL0L
aF0.0
aL0L
aL0L
aL0L
aL0L
aL0L
aF0.0
aF0.0
aL0L
aF0.0
aL11L
aL0L
aL0L
aL0L
aL0L
aL8L
aL0L
aL10L
aL0L
aL0L
aL0L
aL0L
aF0.0
aF0.0
aF0.0
aL0L
aF0.0
aL0L
aL0L
aL0L
aL0L
aL0L
aL0L
aL0L
aL0L
aL0L
aL0L
aL0L
aL0L
aL0L
aL0L
aF0.0
aF0.0
aL0L
aL0L
aL12L
aL13L
aL11L
aF0.0
aF0.0
aL0L
aL0L
aL10L
aF0.0
aL0L
aL10L
aL0L
aL11L
aF0.0
aL423569L
aL2557L
aL1L
ag14
aL7L
aL0L
aL0L
aL0L
aF0.0
aL0L
aF0.0
aL0L
aL0L
aL0L
aL0L
aL0L
aL0L
aL0L
aL0L
aL0L
aL0L
aL0L
aL0L
aL0L
aL11L
aL9L
aL12L
aL8L
aL0L
aL0L
aL0L
aL0L
aL0L
aL0L
aL0L
aL0L
aL0L
aL0L
aL0L
aL0L
aL0L
aL0L
aL0L
aL0L
aL0L
aL0L
aL0L
aL0L
aL0L
aL0L
aL0L
aL0L
aL0L
aL0L
aL0L
aL0L
aL0L
aL0L
aL0L
aL0L
aL0L
aL0L
aL0L
aL0L
aL0L
aL0L
aL0L
aL0L
aL0L
aL0L
aL0L
aL0L
aL0L
aL0L
aL0L
aL0L
aL0L
aL0L
aL0L
aL0L
aL0L
aL0L
aL0L
aL0L
aL0L
aL0L
aL0L
aL0L
aL0L
aL0L
aL0L
aL0L
aL0L
aL0L
aL0L
aL0L
aL0L
aL0L
aF0.0
aF0.0
aL0L
aL0L
aL0L
aL9L
aL0L
aL0L
aL0L
aL0L
aL0L
aL0L
aL0L
aL0L
aL0L
aL0L
aL0L
aL0L
aL0L
aL0L
aL0L
aL0L
aL0L
aL0L
aL0L
aL0L
aL0L
aL0L
aF0.0
aL0L
aF0.0
aL0L
aL8L
aL0L
aL0L
aL0L
aL0L
aL0L
aL0L
aL0L
aL0L
aF0.0
aL0L
aL0L
aL0L
aF0.0
aL0L
aL0L
aL0L
aL0L
aL0L
aF0.0
aL0L
aL0L
aL0L
aL0L
aL0L
aF0.0
aF0.0
aL0L
aF0.0
aL10L
aL0L
aL0L
aL0L
aL0L
aL9L
aL0L
aL10L
aL0L
aL0L
aL0L
aL0L
aF0.0
aF0.0
aF0.0
aL0L
aF0.0
aL0L
aL0L
aL0L
aL0L
aL0L
aL0L
aL0L
aL0L
aL0L
aL0L
aL0L
aL0L
aL0L
aL0L
aF0.0
aF0.0
aL0L
aL0L
aL12L
aL12L
aL7L
aF0.0
aF0.0
aL0L
aL0L
aL10L
aF0.0
aL0L
aL11L
aL0L
aL10L
aF0.0
aL423570L
aL2557L
aL1L
ag14
aL7L
aL0L
aL0L
aL0L
aF0.0
aL0L
aF0.0
aL0L
aL0L
aL0L
aL0L
aL0L
aL0L
aL0L
aL0L
aL0L
aL0L
aL0L
aL0L
aL0L
aL11L
aL11L
aL10L
aL9L
aL0L
aL0L
aL0L
aL0L
aL0L
aL0L
aL0L
aL0L
aL0L
aL0L
aL0L
aL0L
aL0L
aL0L
aL0L
aL0L
aL0L
aL0L
aL0L
aL0L
aL0L
aL0L
aL0L
aL0L
aL0L
aL0L
aL0L
aL0L
aL0L
aL0L
aL0L
aL0L
aL0L
aL0L
aL0L
aL0L
aL0L
aL0L
aL0L
aL0L
aL0L
aL0L
aL0L
aL0L
aL0L
aL0L
aL0L
aL0L
aL0L
aL0L
aL0L
aL0L
aL0L
aL0L
aL0L
aL0L
aL0L
aL0L
aL0L
aL0L
aL0L
aL0L
aL0L
aL0L
aL0L
aL0L
aL0L
aL0L
aL0L
aL0L
aF0.0
aF0.0
aL0L
aL0L
aL0L
aL11L
aL9L
aL0L
aL0L
aL0L
aL0L
aL0L
aL0L
aL0L
aL0L
aL0L
aL0L
aL0L
aL0L
aL0L
aL0L
aL0L
aL0L
aL0L
aL0L
aL0L
aL0L
aL0L
aF0.0
aL0L
aF0.0
aL0L
aL10L
aL0L
aL0L
aL0L
aL0L
aL0L
aL0L
aL0L
aL0L
aF0.0
aL0L
aL0L
aL0L
aF0.0
aL0L
aL0L
aL0L
aL0L
aL0L
aF0.0
aL0L
aL0L
aL0L
aL0L
aL0L
aF0.0
aF0.0
aL0L
aF0.0
aL10L
aL0L
aL0L
aL0L
aL0L
aL10L
aL0L
aL10L
aL0L
aL0L
aL0L
aL0L
aF0.0
aF0.0
aF0.0
aL0L
aF0.0
aL0L
aL0L
aL0L
aL0L
aL0L
aL0L
aL0L
aL0L
aL0L
aL0L
aL0L
aL0L
aL0L
aL0L
aF0.0
aF0.0
aL0L
aL0L
aL11L
aL12L
aL7L
aF0.0
aF0.0
aL0L
aL0L
aL9L
aF0.0
aL0L
aL10L
aL0L
aL12L
aF0.0
aL423571L
aL2557L
aL1L
ag14
aL6L
aL0L
aL0L
aL0L
aF0.0
aL0L
aF0.0
aL0L
aL0L
aL0L
aL0L
aL0L
aL0L
aL0L
aL0L
aL0L
aL0L
aL0L
aL0L
aL0L
aL11L
aL12L
aL10L
aL8L
aL0L
aL0L
aL0L
aL0L
aL0L
aL0L
aL0L
aL0L
aL0L
aL0L
aL0L
aL0L
aL0L
aL0L
aL0L
aL0L
aL0L
aL0L
aL0L
aL0L
aL0L
aL0L
aL0L
aL0L
aL0L
aL0L
aL0L
aL0L
aL0L
aL0L
aL0L
aL0L
aL0L
aL0L
aL0L
aL0L
aL0L
aL0L
aL0L
aL0L
aL0L
aL0L
aL0L
aL0L
aL0L
aL0L
aL0L
aL0L
aL0L
aL0L
aL0L
aL0L
aL0L
aL0L
aL0L
aL0L
aL0L
aL0L
aL0L
aL0L
aL0L
aL0L
aL0L
aL0L
aL0L
aL0L
aL0L
aL0L
aL0L
aL0L
aF0.0
aF0.0
aL0L
aL0L
aL0L
aL13L
aL13L
aL0L
aL0L
aL0L
aL0L
aL0L
aL0L
aL0L
aL0L
aL0L
aL0L
aL0L
aL0L
aL0L
aL0L
aL0L
aL0L
aL0L
aL0L
aL0L
aL0L
aL0L
aF0.0
aL0L
aF0.0
aL0L
aL12L
aL0L
aL0L
aL0L
aL0L
aL0L
aL0L
aL0L
aL0L
aF0.0
aL0L
aL0L
aL0L
aF0.0
aL0L
aL0L
aL0L
aL0L
aL0L
aF0.0
aL0L
aL0L
aL0L
aL0L
aL0L
aF0.0
aF0.0
aL0L
aF0.0
aL10L
aL0L
aL0L
aL0L
aL0L
aL0L
aL11L
aL0L
aL11L
aL0L
aL0L
aL0L
aF0.0
aF0.0
aF0.0
aL0L
aF0.0
aL0L
aL0L
aL0L
aL0L
aL0L
aL0L
aL0L
aL0L
aL0L
aL0L
aL0L
aL0L
aL0L
aL0L
aF0.0
aF0.0
aL0L
aL0L
aL13L
aL13L
aL12L
aF0.0
aF0.0
aL0L
aL0L
aL12L
aF0.0
aL0L
aL11L
aL0L
aL13L
aF0.0
aL423572L
aL2557L
aL1L
ag14
aL8L
aL0L
aL0L
aL0L
aF0.0
aL0L
aF0.0
aL0L
aL0L
aL0L
aL0L
aL0L
aL0L
aL0L
aL0L
aL0L
aL0L
aL0L
aL0L
aL0L
aL9L
aL9L
aL7L
aL6L
aL0L
aL0L
aL0L
aL0L
aL0L
aL0L
aL0L
aL0L
aL0L
aL0L
aL0L
aL0L
aL0L
aL0L
aL0L
aL0L
aL0L
aL0L
aL0L
aL0L
aL0L
aL0L
aL0L
aL0L
aL0L
aL0L
aL0L
aL0L
aL0L
aL0L
aL0L
aL0L
aL0L
aL0L
aL0L
aL0L
aL0L
aL0L
aL0L
aL0L
aL0L
aL0L
aL0L
aL0L
aL0L
aL0L
aL0L
aL0L
aL0L
aL0L
aL0L
aL0L
aL0L
aL0L
aL0L
aL0L
aL0L
aL0L
aL0L
aL0L
aL0L
aL0L
aL0L
aL0L
aL0L
aL0L
aL0L
aL0L
aL0L
aL0L
aF0.0
aF0.0
aL0L
aL0L
aL0L
aL10L
aL10L
aL0L
aL0L
aL0L
aL0L
aL0L
aL0L
aL0L
aL0L
aL0L
aL0L
aL0L
aL0L
aL0L
aL0L
aL0L
aL0L
aL0L
aL0L
aL0L
aL0L
aL0L
aF0.0
aL0L
aF0.0
aL0L
aL5L
aL0L
aL0L
aL0L
aL0L
aL0L
aL0L
aL0L
aL0L
aF0.0
aL0L
aL0L
aL0L
aF0.0
aL0L
aL0L
aL0L
aL0L
aL0L
aF0.0
aL0L
aL0L
aL0L
aL0L
aL0L
aF0.0
aF0.0
aL0L
aF0.0
aL11L
aL0L
aL0L
aL0L
aL0L
aL8L
aL0L
aL10L
aL0L
aL0L
aL0L
aL0L
aF0.0
aF0.0
aF0.0
aL0L
aF0.0
aL0L
aL0L
aL0L
aL0L
aL0L
aL0L
aL0L
aL0L
aL0L
aL0L
aL0L
aL0L
aL0L
aL0L
aF0.0
aF0.0
aL0L
aL0L
aL12L
aL12L
aL10L
aF0.0
aF0.0
aL0L
aL0L
aL12L
aF0.0
aL0L
aL11L
aL0L
aL5L
aF0.0
aL423573L
aL2557L
aL1L
ag14
aL12L
aL0L
aL0L
aL0L
aF0.0
aL0L
aF0.0
aL0L
aL0L
aL0L
aL0L
aL0L
aL0L
aL0L
aL0L
aL0L
aL0L
aL0L
aL0L
aL0L
aL11L
aL12L
aL13L
aL10L
aL13L
aL0L
aL0L
aL0L
aL0L
aL0L
aL0L
aL0L
aL0L
aL0L
aL0L
aL0L
aL0L
aL0L
aL0L
aL0L
aL0L
aL0L
aL0L
aL0L
aL0L
aL0L
aL0L
aL0L
aL0L
aL0L
aL0L
aL0L
aL0L
aL0L
aL0L
aL0L
aL0L
aL0L
aL0L
aL0L
aL0L
aL0L
aL0L
aL0L
aL0L
aL0L
aL0L
aL0L
aL0L
aL0L
aL0L
aL0L
aL0L
aL0L
aL0L
aL0L
aL0L
aL0L
aL0L
aL0L
aL0L
aL0L
aL0L
aL0L
aL0L
aL0L
aL0L
aL0L
aL0L
aL0L
aL0L
aL0L
aL0L
aL0L
aF0.0
aF0.0
aL0L
aL0L
aL0L
aL0L
aL11L
aL0L
aL0L
aL0L
aL0L
aL0L
aL0L
aL0L
aL0L
aL0L
aL0L
aL0L
aL0L
aL0L
aL0L
aL0L
aL0L
aL0L
aL0L
aL0L
aL0L
aL0L
aF0.0
aL0L
aF0.0
aL0L
aL5L
aL0L
aL0L
aL0L
aL0L
aL0L
aL0L
aL0L
aL0L
aF0.0
aL0L
aL0L
aL0L
aF0.0
aL0L
aL0L
aL0L
aL0L
aL0L
aF0.0
aL0L
aL0L
aL0L
aL0L
aL0L
aF0.0
aF0.0
aL0L
aF0.0
aL9L
aL0L
aL0L
aL0L
aL0L
aL0L
aL5L
aL0L
aL10L
aL0L
aL0L
aL0L
aF0.0
aF0.0
aF0.0
aL0L
aF0.0
aL0L
aL0L
aL0L
aL0L
aL0L
aL0L
aL0L
aL0L
aL0L
aL0L
aL0L
aL0L
aL0L
aL0L
aF0.0
aF0.0
aL0L
aL0L
aL12L
aL12L
aL9L
aF0.0
aF0.0
aL0L
aL0L
aL10L
aF0.0
aL0L
aL11L
aL0L
aL7L
aF0.0
aL423574L
aL2557L
aL1L
ag14
aL6L
aL0L
aL0L
aL0L
aF0.0
aL0L
aF0.0
aL0L
aL0L
aL0L
aL0L
aL0L
aL0L
aL0L
aL0L
aL0L
aL0L
aL0L
aL0L
aL0L
aL11L
aL9L
aL10L
aL6L
aL0L
aL0L
aL0L
aL0L
aL0L
aL0L
aL0L
aL0L
aL0L
aL0L
aL0L
aL0L
aL0L
aL0L
aL0L
aL0L
aL0L
aL0L
aL0L
aL0L
aL0L
aL0L
aL0L
aL0L
aL0L
aL0L
aL0L
aL0L
aL0L
aL0L
aL0L
aL0L
aL0L
aL0L
aL0L
aL0L
aL0L
aL0L
aL0L
aL0L
aL0L
aL0L
aL0L
aL0L
aL0L
aL0L
aL0L
aL0L
aL0L
aL0L
aL0L
aL0L
aL0L
aL0L
aL0L
aL0L
aL0L
aL0L
aL0L
aL0L
aL0L
aL0L
aL0L
aL0L
aL0L
aL0L
aL0L
aL0L
aL0L
aL0L
aF0.0
aF0.0
aL0L
aL0L
aL0L
aL12L
aL10L
aL0L
aL0L
aL0L
aL0L
aL0L
aL0L
aL0L
aL0L
aL0L
aL0L
aL0L
aL0L
aL0L
aL0L
aL0L
aL0L
aL0L
aL0L
aL0L
aL0L
aL0L
aF0.0
aL0L
aF0.0
aL0L
aL7L
aL0L
aL0L
aL0L
aL0L
aL0L
aL0L
aL0L
aL0L
aF0.0
aL0L
aL0L
aL0L
aF0.0
aL0L
aL0L
aL0L
aL0L
aL0L
aF0.0
aL0L
aL0L
aL0L
aL0L
aL0L
aF0.0
aF0.0
aL0L
aF0.0
aL11L
aL0L
aL0L
aL0L
aL0L
aL0L
aL5L
aL0L
aL10L
aL0L
aL0L
aL0L
aF0.0
aF0.0
aF0.0
aL0L
aF0.0
aL0L
aL0L
aL0L
aL0L
aL0L
aL0L
aL0L
aL0L
aL0L
aL0L
aL0L
aL0L
aL0L
aL0L
aF0.0
aF0.0
aL0L
aL0L
aL12L
aL13L
aL9L
aF0.0
aF0.0
aL0L
aL0L
aL10L
aF0.0
aL0L
aL9L
aL0L
aL13L
aF0.0
aL423575L
aL2557L
aL1L
ag14
aL9L
aL0L
aL0L
aL0L
aF0.0
aL0L
aF0.0
aL0L
aL0L
aL0L
aL0L
aL0L
aL0L
aL0L
aL0L
aL0L
aL0L
aL0L
aL0L
aL0L
aL11L
aL12L
aL13L
aL11L
aL13L
aL0L
aL0L
aL0L
aL0L
aL0L
aL0L
aL0L
aL0L
aL0L
aL0L
aL0L
aL0L
aL0L
aL0L
aL0L
aL0L
aL0L
aL0L
aL0L
aL0L
aL0L
aL0L
aL0L
aL0L
aL0L
aL0L
aL0L
aL0L
aL0L
aL0L
aL0L
aL0L
aL0L
aL0L
aL0L
aL0L
aL0L
aL0L
aL0L
aL0L
aL0L
aL0L
aL0L
aL0L
aL0L
aL0L
aL0L
aL0L
aL0L
aL0L
aL0L
aL0L
aL0L
aL0L
aL0L
aL0L
aL0L
aL0L
aL0L
aL0L
aL0L
aL0L
aL0L
aL0L
aL0L
aL0L
aL0L
aL0L
aL0L
aF0.0
aF0.0
aL0L
aL0L
aL0L
aL0L
aL10L
aL0L
aL0L
aL0L
aL0L
aL0L
aL0L
aL0L
aL0L
aL0L
aL0L
aL0L
aL0L
aL0L
aL0L
aL0L
aL0L
aL0L
aL0L
aL0L
aL0L
aL0L
aF0.0
aL0L
aF0.0
aL0L
aL6L
aL0L
aL0L
aL0L
aL0L
aL0L
aL0L
aL0L
aL0L
aF0.0
aL0L
aL0L
aL0L
aF0.0
aL0L
aL0L
aL0L
aL0L
aL0L
aF0.0
aL0L
aL0L
aL0L
aL0L
aL0L
aF0.0
aF0.0
aL0L
aF0.0
aL9L
aL0L
aL0L
aL0L
aL0L
aL0L
aL8L
aL0L
aL11L
aL0L
aL0L
aL0L
aF0.0
aF0.0
aF0.0
aL0L
aF0.0
aL0L
aL0L
aL0L
aL0L
aL0L
aL0L
aL0L
aL0L
aL0L
aL0L
aL0L
aL0L
aL0L
aL0L
aF0.0
aF0.0
aL0L
aL0L
aL13L
aL12L
aL11L
aF0.0
aF0.0
aL0L
aL0L
aL11L
aF0.0
aL8L
aL9L
aL0L
aL8L
aF0.0
aL423576L
aL2557L
aL1L
ag14
aL13L
aL0L
aL0L
aL0L
aF0.0
aL0L
aF0.0
aL0L
aL0L
aL0L
aL0L
aL0L
aL0L
aL0L
aL0L
aL0L
aL0L
aL0L
aL0L
aL0L
aL12L
aL13L
aL13L
aL13L
aL13L
aL0L
aL0L
aL0L
aL0L
aL0L
aL0L
aL0L
aL0L
aL0L
aL0L
aL0L
aL0L
aL0L
aL0L
aL0L
aL0L
aL0L
aL0L
aL0L
aL0L
aL0L
aL0L
aL0L
aL0L
aL0L
aL0L
aL0L
aL0L
aL0L
aL0L
aL0L
aL0L
aL0L
aL0L
aL0L
aL0L
aL0L
aL0L
aL0L
aL0L
aL0L
aL0L
aL0L
aL0L
aL0L
aL0L
aL0L
aL0L
aL0L
aL0L
aL0L
aL0L
aL0L
aL0L
aL0L
aL0L
aL0L
aL0L
aL0L
aL0L
aL0L
aL0L
aL0L
aL0L
aL0L
aL0L
aL0L
aL0L
aL0L
aF0.0
aF0.0
aL0L
aL0L
aL0L
aL0L
aL0L
aL0L
aL0L
aL0L
aL0L
aL0L
aL0L
aL0L
aL0L
aL0L
aL0L
aL0L
aL0L
aL0L
aL0L
aL0L
aL0L
aL0L
aL0L
aL0L
aL0L
aL0L
aF0.0
aL0L
aF0.0
aL0L
aL11L
aL0L
aL0L
aL0L
aL0L
aL0L
aL0L
aL0L
aL0L
aF0.0
aL0L
aL0L
aL0L
aF0.0
aL0L
aL0L
aL0L
aL0L
aL0L
aF0.0
aL0L
aL0L
aL0L
aL0L
aL0L
aF0.0
aF0.0
aL0L
aF0.0
aL12L
aL0L
aL0L
aL0L
aL0L
aL0L
aL13L
aL0L
aL13L
aL0L
aL0L
aL0L
aF0.0
aF0.0
aF0.0
aL0L
aF0.0
aL0L
aL0L
aL0L
aL0L
aL0L
aL0L
aL0L
aL0L
aL0L
aL0L
aL0L
aL0L
aL0L
aL0L
aF0.0
aF0.0
aL0L
aL0L
aL12L
aL12L
aL13L
aF0.0
aF0.0
aL0L
aL0L
aL13L
aF0.0
aL0L
aL12L
aL0L
aL13L
aF0.0
aL423577L
aL2557L
aL1L
ag14
aL7L
aL0L
aL0L
aL0L
aF0.0
aL0L
aF0.0
aL0L
aL0L
aL0L
aL0L
aL0L
aL0L
aL0L
aL0L
aL0L
aL0L
aL0L
aL0L
aL0L
aL9L
aL9L
aL7L
aL7L
aL0L
aL0L
aL0L
aL0L
aL0L
aL0L
aL0L
aL0L
aL0L
aL0L
aL0L
aL0L
aL0L
aL0L
aL0L
aL0L
aL0L
aL0L
aL0L
aL0L
aL0L
aL0L
aL0L
aL0L
aL0L
aL0L
aL0L
aL0L
aL0L
aL0L
aL0L
aL0L
aL0L
aL0L
aL0L
aL0L
aL0L
aL0L
aL0L
aL0L
aL0L
aL0L
aL0L
aL0L
aL0L
aL0L
aL0L
aL0L
aL0L
aL0L
aL0L
aL0L
aL0L
aL0L
aL0L
aL0L
aL0L
aL0L
aL0L
aL0L
aL0L
aL0L
aL0L
aL0L
aL0L
aL0L
aL0L
aL0L
aL0L
aL0L
aF0.0
aF0.0
aL0L
aL0L
aL0L
aL10L
aL9L
aL0L
aL0L
aL0L
aL0L
aL0L
aL0L
aL0L
aL0L
aL0L
aL0L
aL0L
aL0L
aL0L
aL0L
aL0L
aL0L
aL0L
aL0L
aL0L
aL0L
aL0L
aF0.0
aL0L
aF0.0
aL0L
aL5L
aL0L
aL0L
aL0L
aL0L
aL0L
aL0L
aL0L
aL0L
aF0.0
aL0L
aL0L
aL0L
aF0.0
aL0L
aL0L
aL0L
aL0L
aL0L
aF0.0
aL0L
aL0L
aL0L
aL0L
aL0L
aF0.0
aF0.0
aL0L
aF0.0
aL10L
aL0L
aL0L
aL0L
aL0L
aL0L
aL5L
aL0L
aL10L
aL0L
aL0L
aL0L
aF0.0
aF0.0
aF0.0
aL0L
aF0.0
aL0L
aL0L
aL0L
aL0L
aL0L
aL0L
aL0L
aL0L
aL0L
aL0L
aL0L
aL0L
aL0L
aL0L
aF0.0
aF0.0
aL0L
aL0L
aL12L
aL12L
aL11L
aF0.0
aF0.0
aL0L
aL0L
aL10L
aF0.0
aL0L
aL10L
aL0L
aL8L
aF0.0
aL423578L
aL2557L
aL1L
ag14
aL10L
aL0L
aL0L
aL0L
aF0.0
aL0L
aF0.0
aL0L
aL0L
aL0L
aL0L
aL0L
aL0L
aL0L
aL0L
aL0L
aL0L
aL0L
aL0L
aL0L
aL12L
aL13L
aL9L
aL11L
aL0L
aL0L
aL0L
aL0L
aL0L
aL0L
aL0L
aL0L
aL0L
aL0L
aL0L
aL0L
aL0L
aL0L
aL0L
aL0L
aL0L
aL0L
aL0L
aL0L
aL0L
aL0L
aL0L
aL0L
aL0L
aL0L
aL0L
aL0L
aL0L
aL0L
aL0L
aL0L
aL0L
aL0L
aL0L
aL0L
aL0L
aL0L
aL0L
aL0L
aL0L
aL0L
aL0L
aL0L
aL0L
aL0L
aL0L
aL0L
aL0L
aL0L
aL0L
aL0L
aL0L
aL0L
aL0L
aL0L
aL0L
aL0L
aL0L
aL0L
aL0L
aL0L
aL0L
aL0L
aL0L
aL0L
aL0L
aL0L
aL0L
aL0L
aF0.0
aF0.0
aL0L
aL0L
aL0L
aL10L
aL8L
aL0L
aL0L
aL0L
aL0L
aL0L
aL0L
aL0L
aL0L
aL0L
aL0L
aL0L
aL0L
aL0L
aL0L
aL0L
aL0L
aL0L
aL0L
aL0L
aL0L
aL0L
aF0.0
aL0L
aF0.0
aL0L
aL9L
aL0L
aL0L
aL0L
aL0L
aL0L
aL0L
aL0L
aL0L
aF0.0
aL0L
aL0L
aL0L
aF0.0
aL0L
aL0L
aL0L
aL0L
aL0L
aF0.0
aL0L
aL0L
aL0L
aL0L
aL0L
aF0.0
aF0.0
aL0L
aF0.0
aL8L
aL0L
aL0L
aL0L
aL0L
aL9L
aL0L
aL10L
aL0L
aL0L
aL0L
aL0L
aF0.0
aF0.0
aF0.0
aL0L
aF0.0
aL0L
aL0L
aL0L
aL0L
aL0L
aL0L
aL0L
aL0L
aL0L
aL0L
aL0L
aL0L
aL0L
aL0L
aF0.0
aF0.0
aL0L
aL0L
aL12L
aL12L
aL8L
aF0.0
aF0.0
aL0L
aL0L
aL9L
aF0.0
aL0L
aL9L
aL0L
aL11L
aF0.0
aL423579L
aL2557L
aL1L
ag14
aL6L
aL0L
aL8L
aL0L
aF0.0
aL0L
aF0.0
aL0L
aL0L
aL0L
aL0L
aL0L
aL0L
aL0L
aL0L
aL0L
aL0L
aL0L
aL0L
aL0L
aL10L
aL9L
aL7L
aL6L
aL0L
aL0L
aL0L
aL0L
aL0L
aL0L
aL0L
aL0L
aL0L
aL0L
aL0L
aL0L
aL0L
aL0L
aL0L
aL0L
aL0L
aL0L
aL0L
aL0L
aL0L
aL0L
aL0L
aL0L
aL0L
aL0L
aL0L
aL0L
aL0L
aL0L
aL0L
aL0L
aL0L
aL0L
aL0L
aL0L
aL0L
aL0L
aL0L
aL0L
aL0L
aL0L
aL0L
aL0L
aL0L
aL0L
aL0L
aL0L
aL0L
aL0L
aL0L
aL0L
aL0L
aL0L
aL0L
aL0L
aL0L
aL0L
aL0L
aL0L
aL0L
aL0L
aL0L
aL0L
aL0L
aL0L
aL0L
aL0L
aL0L
aL0L
aF0.0
aF0.0
aL0L
aL0L
aL0L
aL11L
aL10L
aL0L
aL0L
aL0L
aL0L
aL0L
aL0L
aL0L
aL0L
aL0L
aL0L
aL0L
aL0L
aL0L
aL0L
aL0L
aL0L
aL0L
aL0L
aL0L
aL0L
aL0L
aF0.0
aL0L
aF0.0
aL0L
aL6L
aL0L
aL0L
aL0L
aL0L
aL0L
aL0L
aL0L
aL0L
aF0.0
aL0L
aL0L
aL0L
aF0.0
aL0L
aL0L
aL0L
aL0L
aL0L
aF0.0
aL0L
aL0L
aL0L
aL0L
aL0L
aF0.0
aF0.0
aL0L
aF0.0
aL9L
aL0L
aL0L
aL0L
aL0L
aL7L
aL0L
aL10L
aL0L
aL0L
aL0L
aL0L
aF0.0
aF0.0
aF0.0
aL0L
aF0.0
aL0L
aL0L
aL0L
aL0L
aL0L
aL0L
aL0L
aL0L
aL0L
aL0L
aL0L
aL0L
aL0L
aL0L
aF0.0
aF0.0
aL0L
aL0L
aL13L
aL12L
aL10L
aF0.0
aF0.0
aL0L
aL0L
aL10L
aF0.0
aL0L
aL10L
aL0L
aL9L
aF0.0
aL423580L
aL2557L
aL1L
ag14
aL6L
aL0L
aL0L
aL0L
aF0.0
aL0L
aF0.0
aL0L
aL0L
aL0L
aL0L
aL0L
aL0L
aL0L
aL0L
aL0L
aL0L
aL0L
aL0L
aL0L
aL9L
aL9L
aL7L
aL6L
aL5L
aL0L
aL0L
aL0L
aL0L
aL0L
aL0L
aL0L
aL0L
aL0L
aL0L
aL0L
aL0L
aL0L
aL0L
aL0L
aL0L
aL0L
aL0L
aL0L
aL0L
aL0L
aL0L
aL0L
aL0L
aL0L
aL0L
aL0L
aL0L
aL0L
aL0L
aL0L
aL0L
aL0L
aL0L
aL0L
aL0L
aL0L
aL0L
aL0L
aL0L
aL0L
aL0L
aL0L
aL0L
aL0L
aL0L
aL0L
aL0L
aL0L
aL0L
aL0L
aL0L
aL0L
aL0L
aL0L
aL0L
aL0L
aL0L
aL0L
aL0L
aL0L
aL0L
aL0L
aL0L
aL0L
aL0L
aL0L
aL0L
aL0L
aF0.0
aF0.0
aL0L
aL0L
aL0L
aL0L
aL12L
aL0L
aL0L
aL0L
aL0L
aL0L
aL0L
aL0L
aL0L
aL0L
aL0L
aL0L
aL0L
aL0L
aL0L
aL0L
aL0L
aL0L
aL0L
aL0L
aL0L
aL0L
aF0.0
aL0L
aF0.0
aL0L
aL5L
aL0L
aL0L
aL0L
aL0L
aL0L
aL0L
aL0L
aL0L
aF0.0
aL0L
aL0L
aL0L
aF0.0
aL0L
aL0L
aL0L
aL0L
aL0L
aF0.0
aL0L
aL0L
aL0L
aL0L
aL0L
aF0.0
aF0.0
aL0L
aF0.0
aL8L
aL0L
aL0L
aL0L
aL0L
aL7L
aL0L
aL9L
aL0L
aL0L
aL0L
aL0L
aF0.0
aF0.0
aF0.0
aL0L
aF0.0
aL0L
aL0L
aL0L
aL0L
aL0L
aL0L
aL0L
aL0L
aL0L
aL0L
aL0L
aL0L
aL0L
aL0L
aF0.0
aF0.0
aL0L
aL0L
aL12L
aL12L
aL10L
aF0.0
aF0.0
aL0L
aL0L
aL11L
aF0.0
aL9L
aL10L
aL0L
aL7L
aF0.0
aL423581L
aL2557L
aL1L
ag14
aL10L
aL0L
aL0L
aL0L
aF0.0
aL0L
aF0.0
aL0L
aL0L
aL0L
aL0L
aL0L
aL0L
aL0L
aL0L
aL0L
aL0L
aL0L
aL0L
aL0L
aL11L
aL11L
aL11L
aL11L
aL13L
aL0L
aL0L
aL0L
aL0L
aL0L
aL0L
aL0L
aL0L
aL0L
aL0L
aL0L
aL0L
aL0L
aL0L
aL0L
aL0L
aL0L
aL0L
aL0L
aL0L
aL0L
aL0L
aL0L
aL0L
aL0L
aL0L
aL0L
aL0L
aL0L
aL0L
aL0L
aL0L
aL0L
aL0L
aL0L
aL0L
aL0L
aL0L
aL0L
aL0L
aL0L
aL0L
aL0L
aL0L
aL0L
aL0L
aL0L
aL0L
aL0L
aL0L
aL0L
aL0L
aL0L
aL0L
aL0L
aL0L
aL0L
aL0L
aL0L
aL0L
aL0L
aL0L
aL0L
aL0L
aL0L
aL0L
aL0L
aL0L
aL0L
aF0.0
aF0.0
aL0L
aL0L
aL3L
aL10L
aL10L
aL0L
aL0L
aL0L
aL0L
aL0L
aL0L
aL0L
aL0L
aL0L
aL0L
aL0L
aL0L
aL0L
aL0L
aL0L
aL0L
aL0L
aL0L
aL0L
aL0L
aL0L
aF0.0
aL0L
aF0.0
aL0L
aL8L
aL0L
aL0L
aL0L
aL0L
aL0L
aL0L
aL0L
aL0L
aF0.0
aL0L
aL0L
aL0L
aF0.0
aL0L
aL0L
aL0L
aL0L
aL0L
aF0.0
aL0L
aL0L
aL0L
aL0L
aL0L
aF0.0
aF0.0
aL0L
aF0.0
aL0L
aL0L
aL0L
aL0L
aL0L
aL10L
aL0L
aL10L
aL0L
aL0L
aL0L
aL0L
aF0.0
aF0.0
aF0.0
aL0L
aF0.0
aL0L
aL0L
aL0L
aL0L
aL0L
aL0L
aL0L
aL0L
aL0L
aL0L
aL0L
aL0L
aL0L
aL0L
aF0.0
aF0.0
aL0L
aL0L
aL12L
aL13L
aL11L
aF0.0
aF0.0
aL0L
aL0L
aL10L
aF0.0
aL0L
aL11L
aL0L
aL11L
aF0.0
aL423582L
aL2557L
aL1L
ag14
aL6L
aL0L
aL0L
aL0L
aF0.0
aL0L
aF0.0
aL0L
aL0L
aL0L
aL0L
aL0L
aL0L
aL0L
aL0L
aL0L
aL0L
aL0L
aL0L
aL0L
aL9L
aL9L
aL7L
aL6L
aL0L
aL0L
aL0L
aL0L
aL0L
aL0L
aL0L
aL0L
aL0L
aL0L
aL0L
aL0L
aL0L
aL0L
aL0L
aL0L
aL0L
aL0L
aL0L
aL0L
aL0L
aL0L
aL0L
aL0L
aL0L
aL0L
aL0L
aL0L
aL0L
aL0L
aL0L
aL0L
aL0L
aL0L
aL0L
aL0L
aL0L
aL0L
aL0L
aL0L
aL0L
aL0L
aL0L
aL0L
aL0L
aL0L
aL0L
aL0L
aL0L
aL0L
aL0L
aL0L
aL0L
aL0L
aL0L
aL0L
aL0L
aL0L
aL0L
aL0L
aL0L
aL0L
aL0L
aL0L
aL0L
aL0L
aL0L
aL0L
aL0L
aL0L
aF0.0
aF0.0
aL0L
aL0L
aL3L
aL11L
aL10L
aL0L
aL0L
aL0L
aL0L
aL0L
aL0L
aL0L
aL0L
aL0L
aL0L
aL0L
aL0L
aL0L
aL0L
aL0L
aL0L
aL0L
aL0L
aL0L
aL0L
aL0L
aF0.0
aL0L
aF0.0
aL0L
aL7L
aL0L
aL0L
aL0L
aL0L
aL0L
aL0L
aL0L
aL0L
aF0.0
aL0L
aL0L
aL0L
aF0.0
aL0L
aL0L
aL0L
aL0L
aL0L
aF0.0
aL0L
aL0L
aL0L
aL0L
aL0L
aF0.0
aF0.0
aL0L
aF0.0
aL10L
aL0L
aL0L
aL0L
aL0L
aL0L
aL6L
aL0L
aL10L
aL0L
aL10L
aL0L
aF0.0
aF0.0
aF0.0
aL0L
aF0.0
aL0L
aL0L
aL0L
aL0L
aL0L
aL0L
aL0L
aL0L
aL0L
aL0L
aL0L
aL0L
aL0L
aL0L
aF0.0
aF0.0
aL0L
aL0L
aL12L
aL12L
aL9L
aF0.0
aF0.0
aL0L
aL0L
aL10L
aF0.0
aL0L
aL10L
aL0L
aL8L
aF0.0
aL423583L
aL2557L
aL1L
ag14
aL6L
aL0L
aL0L
aL0L
aF0.0
aL0L
aF0.0
aL0L
aL0L
aL0L
aL0L
aL0L
aL0L
aL0L
aL0L
aL0L
aL0L
aL0L
aL0L
aL0L
aL10L
aL9L
aL7L
aL6L
aL0L
aL0L
aL0L
aL0L
aL0L
aL0L
aL0L
aL0L
aL0L
aL0L
aL0L
aL0L
aL0L
aL0L
aL0L
aL0L
aL0L
aL0L
aL0L
aL0L
aL0L
aL0L
aL0L
aL0L
aL0L
aL0L
aL0L
aL0L
aL0L
aL0L
aL0L
aL0L
aL0L
aL0L
aL0L
aL0L
aL0L
aL0L
aL0L
aL0L
aL0L
aL0L
aL0L
aL0L
aL0L
aL0L
aL0L
aL0L
aL0L
aL0L
aL0L
aL0L
aL0L
aL0L
aL0L
aL0L
aL0L
aL0L
aL0L
aL0L
aL0L
aL0L
aL0L
aL0L
aL0L
aL0L
aL0L
aL0L
aL0L
aL0L
aF0.0
aF0.0
aL0L
aL0L
aL0L
aL10L
aL9L
aL0L
aL0L
aL0L
aL0L
aL0L
aL0L
aL0L
aL0L
aL0L
aL0L
aL0L
aL0L
aL0L
aL0L
aL0L
aL0L
aL0L
aL0L
aL0L
aL0L
aL0L
aF0.0
aL0L
aF0.0
aL0L
aL5L
aL0L
aL0L
aL0L
aL0L
aL0L
aL0L
aL0L
aL0L
aF0.0
aL0L
aL0L
aL0L
aF0.0
aL0L
aL0L
aL0L
aL0L
aL0L
aF0.0
aL0L
aL0L
aL0L
aL0L
aL0L
aF0.0
aF0.0
aL0L
aF0.0
aL10L
aL0L
aL0L
aL0L
aL0L
aL0L
aL5L
aL0L
aL10L
aL0L
aL0L
aL0L
aF0.0
aF0.0
aF0.0
aL0L
aF0.0
aL0L
aL0L
aL0L
aL0L
aL0L
aL0L
aL0L
aL0L
aL0L
aL0L
aL0L
aL0L
aL0L
aL0L
aF0.0
aF0.0
aL0L
aL0L
aL12L
aL13L
aL7L
aF0.0
aF0.0
aL0L
aL0L
aL9L
aF0.0
aL0L
aL9L
aL0L
aL8L
aF0.0
aL423585L
aL2557L
aL1L
ag14
aL13L
aL0L
aL0L
aL0L
aF0.0
aL0L
aF0.0
aL0L
aL0L
aL0L
aL0L
aL0L
aL0L
aL0L
aL0L
aL0L
aL0L
aL0L
aL0L
aL0L
aL12L
aL12L
aL11L
aL12L
aL13L
aL0L
aL0L
aL0L
aL0L
aL0L
aL0L
aL0L
aL0L
aL0L
aL0L
aL0L
aL0L
aL0L
aL0L
aL0L
aL0L
aL0L
aL0L
aL0L
aL0L
aL0L
aL0L
aL0L
aL0L
aL0L
aL0L
aL0L
aL0L
aL0L
aL0L
aL0L
aL0L
aL0L
aL0L
aL0L
aL0L
aL0L
aL0L
aL0L
aL0L
aL0L
aL0L
aL0L
aL0L
aL0L
aL0L
aL0L
aL0L
aL0L
aL0L
aL0L
aL0L
aL0L
aL0L
aL0L
aL0L
aL0L
aL0L
aL0L
aL0L
aL0L
aL0L
aL0L
aL0L
aL0L
aL0L
aL0L
aL0L
aL0L
aF0.0
aF0.0
aL0L
aL0L
aL3L
aL12L
aL10L
aL0L
aL0L
aL0L
aL0L
aL0L
aL0L
aL0L
aL0L
aL0L
aL0L
aL0L
aL0L
aL0L
aL0L
aL0L
aL0L
aL0L
aL0L
aL0L
aL0L
aL0L
aF0.0
aL0L
aF0.0
aL0L
aL0L
aL0L
aL0L
aL0L
aL0L
aL0L
aL0L
aL0L
aL0L
aF0.0
aL0L
aL0L
aL0L
aF0.0
aL0L
aL0L
aL0L
aL0L
aL0L
aF0.0
aL0L
aL0L
aL0L
aL0L
aL0L
aF0.0
aF0.0
aL0L
aF0.0
aL11L
aL0L
aL0L
aL0L
aL0L
aL10L
aL0L
aL10L
aL0L
aL0L
aL0L
aL0L
aF0.0
aF0.0
aF0.0
aL12L
aF0.0
aL0L
aL0L
aL0L
aL0L
aL0L
aL0L
aL0L
aL0L
aL0L
aL0L
aL0L
aL0L
aL0L
aL0L
aF0.0
aF0.0
aL0L
aL0L
aL12L
aL13L
aL12L
aF0.0
aF0.0
aL0L
aL0L
aL11L
aF0.0
aL0L
aL13L
aL0L
aL11L
aF0.0
aL423586L
aL2557L
aL1L
ag14
aL6L
aL0L
aL0L
aL0L
aF0.0
aL0L
aF0.0
aL0L
aL0L
aL0L
aL0L
aL0L
aL0L
aL0L
aL0L
aL0L
aL0L
aL0L
aL0L
aL0L
aL11L
aL9L
aL8L
aL8L
aL0L
aL0L
aL0L
aL0L
aL0L
aL0L
aL0L
aL0L
aL0L
aL0L
aL0L
aL0L
aL0L
aL0L
aL0L
aL0L
aL0L
aL0L
aL0L
aL0L
aL0L
aL0L
aL0L
aL0L
aL0L
aL0L
aL0L
aL0L
aL0L
aL0L
aL0L
aL0L
aL0L
aL0L
aL0L
aL0L
aL0L
aL0L
aL0L
aL0L
aL0L
aL0L
aL0L
aL0L
aL0L
aL0L
aL0L
aL0L
aL0L
aL0L
aL0L
aL0L
aL0L
aL0L
aL0L
aL0L
aL0L
aL0L
aL0L
aL0L
aL0L
aL0L
aL0L
aL0L
aL0L
aL0L
aL0L
aL0L
aL0L
aL0L
aF0.0
aF0.0
aL0L
aL0L
aL0L
aL12L
aL11L
aL0L
aL0L
aL0L
aL0L
aL0L
aL0L
aL0L
aL0L
aL0L
aL0L
aL0L
aL0L
aL0L
aL0L
aL0L
aL0L
aL0L
aL0L
aL0L
aL0L
aL0L
aF0.0
aL0L
aF0.0
aL0L
aL9L
aL0L
aL0L
aL0L
aL0L
aL0L
aL0L
aL0L
aL0L
aF0.0
aL0L
aL0L
aL0L
aF0.0
aL0L
aL0L
aL0L
aL0L
aL0L
aF0.0
aL0L
aL0L
aL0L
aL0L
aL0L
aF0.0
aF0.0
aL0L
aF0.0
aL10L
aL0L
aL0L
aL0L
aL0L
aL9L
aL0L
aL10L
aL0L
aL0L
aL0L
aL0L
aF0.0
aF0.0
aF0.0
aL10L
aF0.0
aL0L
aL0L
aL0L
aL0L
aL0L
aL0L
aL0L
aL0L
aL0L
aL0L
aL0L
aL0L
aL0L
aL0L
aF0.0
aF0.0
aL0L
aL0L
aL13L
aL12L
aL10L
aF0.0
aF0.0
aL0L
aL0L
aL10L
aF0.0
aL0L
aL10L
aL0L
aL9L
aF0.0
aL423587L
aL2557L
aL1L
ag14
aL6L
aL0L
aL0L
aL0L
aF0.0
aL0L
aF0.0
aL0L
aL0L
aL0L
aL0L
aL0L
aL0L
aL0L
aL0L
aL0L
aL0L
aL0L
aL0L
aL0L
aL11L
aL9L
aL11L
aL7L
aL0L
aL0L
aL0L
aL0L
aL0L
aL0L
aL0L
aL0L
aL0L
aL0L
aL0L
aL0L
aL0L
aL0L
aL0L
aL0L
aL0L
aL0L
aL0L
aL0L
aL0L
aL0L
aL0L
aL0L
aL0L
aL0L
aL0L
aL0L
aL0L
aL0L
aL0L
aL0L
aL0L
aL0L
aL0L
aL0L
aL0L
aL0L
aL0L
aL0L
aL0L
aL0L
aL0L
aL0L
aL0L
aL0L
aL0L
aL0L
aL0L
aL0L
aL0L
aL0L
aL0L
aL0L
aL0L
aL0L
aL0L
aL0L
aL0L
aL0L
aL0L
aL0L
aL0L
aL0L
aL0L
aL0L
aL0L
aL0L
aL0L
aL0L
aF0.0
aF0.0
aL0L
aL0L
aL0L
aL8L
aL6L
aL0L
aL0L
aL0L
aL0L
aL0L
aL0L
aL0L
aL0L
aL0L
aL0L
aL0L
aL0L
aL0L
aL0L
aL0L
aL0L
aL0L
aL0L
aL0L
aL0L
aL0L
aF0.0
aL0L
aF0.0
aL0L
aL5L
aL0L
aL0L
aL0L
aL0L
aL0L
aL0L
aL0L
aL0L
aF0.0
aL0L
aL0L
aL0L
aF0.0
aL0L
aL0L
aL0L
aL0L
aL0L
aF0.0
aL0L
aL0L
aL0L
aL0L
aL0L
aF0.0
aF0.0
aL0L
aF0.0
aL7L
aL0L
aL0L
aL0L
aL0L
aL0L
aL10L
aL0L
aL10L
aL0L
aL0L
aL0L
aF0.0
aF0.0
aF0.0
aL0L
aF0.0
aL0L
aL0L
aL0L
aL0L
aL0L
aL0L
aL0L
aL0L
aL0L
aL0L
aL0L
aL0L
aL0L
aL0L
aF0.0
aF0.0
aL0L
aL0L
aL11L
aL11L
aL5L
aF0.0
aF0.0
aL0L
aL0L
aL10L
aF0.0
aL0L
aL5L
aL0L
aL10L
aF0.0
aL423588L
aL2557L
aL1L
ag14
aL8L
aL0L
aL0L
aL0L
aF0.0
aL0L
aF0.0
aL0L
aL0L
aL0L
aL0L
aL0L
aL0L
aL0L
aL0L
aL0L
aL0L
aL0L
aL0L
aL0L
aL10L
aL10L
aL11L
aL7L
aL0L
aL0L
aL0L
aL0L
aL0L
aL0L
aL0L
aL0L
aL0L
aL0L
aL0L
aL0L
aL0L
aL0L
aL0L
aL0L
aL0L
aL0L
aL0L
aL0L
aL0L
aL0L
aL0L
aL0L
aL0L
aL0L
aL0L
aL0L
aL0L
aL0L
aL0L
aL0L
aL0L
aL0L
aL0L
aL0L
aL0L
aL0L
aL0L
aL0L
aL0L
aL0L
aL0L
aL0L
aL0L
aL0L
aL0L
aL0L
aL0L
aL0L
aL0L
aL0L
aL0L
aL0L
aL0L
aL0L
aL0L
aL0L
aL0L
aL0L
aL0L
aL0L
aL0L
aL0L
aL0L
aL0L
aL0L
aL0L
aL0L
aL0L
aF0.0
aF0.0
aL0L
aL0L
aL0L
aL9L
aL9L
aL0L
aL0L
aL0L
aL0L
aL0L
aL0L
aL0L
aL0L
aL0L
aL0L
aL0L
aL0L
aL0L
aL0L
aL0L
aL0L
aL0L
aL0L
aL0L
aL0L
aL0L
aF0.0
aL0L
aF0.0
aL0L
aL5L
aL0L
aL0L
aL0L
aL0L
aL0L
aL0L
aL0L
aL0L
aF0.0
aL0L
aL0L
aL0L
aF0.0
aL0L
aL0L
aL0L
aL0L
aL0L
aF0.0
aL0L
aL0L
aL0L
aL0L
aL0L
aF0.0
aF0.0
aL0L
aF0.0
aL8L
aL0L
aL0L
aL0L
aL0L
aL0L
aL9L
aL0L
aL11L
aL0L
aL0L
aL0L
aF0.0
aF0.0
aF0.0
aL0L
aF0.0
aL0L
aL0L
aL0L
aL0L
aL0L
aL0L
aL0L
aL0L
aL0L
aL0L
aL0L
aL0L
aL0L
aL0L
aF0.0
aF0.0
aL0L
aL0L
aL11L
aL10L
aL7L
aF0.0
aF0.0
aL0L
aL0L
aL10L
aF0.0
aL0L
aL9L
aL0L
aL9L
aF0.0
aL423590L
aL2557L
aL1L
ag14
aL7L
aL0L
aL0L
aL0L
aF0.0
aL0L
aF0.0
aL0L
aL0L
aL0L
aL0L
aL0L
aL0L
aL0L
aL0L
aL0L
aL0L
aL0L
aL0L
aL0L
aL10L
aL9L
aL7L
aL7L
aL0L
aL0L
aL0L
aL0L
aL0L
aL0L
aL0L
aL0L
aL0L
aL0L
aL0L
aL0L
aL0L
aL0L
aL0L
aL0L
aL0L
aL0L
aL0L
aL0L
aL0L
aL0L
aL0L
aL0L
aL0L
aL0L
aL0L
aL0L
aL0L
aL0L
aL0L
aL0L
aL0L
aL0L
aL0L
aL0L
aL0L
aL0L
aL0L
aL0L
aL0L
aL0L
aL0L
aL0L
aL0L
aL0L
aL0L
aL0L
aL0L
aL0L
aL0L
aL0L
aL0L
aL0L
aL0L
aL0L
aL0L
aL0L
aL0L
aL0L
aL0L
aL0L
aL0L
aL0L
aL0L
aL0L
aL0L
aL0L
aL0L
aL0L
aF0.0
aF0.0
aL0L
aL0L
aL0L
aL12L
aL11L
aL0L
aL0L
aL0L
aL0L
aL0L
aL0L
aL0L
aL0L
aL0L
aL0L
aL0L
aL0L
aL0L
aL0L
aL0L
aL0L
aL0L
aL0L
aL0L
aL0L
aL0L
aF0.0
aL0L
aF0.0
aL0L
aL8L
aL0L
aL0L
aL0L
aL0L
aL0L
aL0L
aL0L
aL0L
aF0.0
aL0L
aL0L
aL0L
aF0.0
aL0L
aL0L
aL0L
aL0L
aL0L
aF0.0
aL0L
aL0L
aL0L
aL0L
aL0L
aF0.0
aF0.0
aL0L
aF0.0
aL11L
aL0L
aL0L
aL0L
aL0L
aL0L
aL8L
aL0L
aL10L
aL0L
aL0L
aL0L
aF0.0
aF0.0
aF0.0
aL0L
aF0.0
aL0L
aL0L
aL0L
aL0L
aL0L
aL0L
aL0L
aL0L
aL0L
aL0L
aL0L
aL0L
aL0L
aL0L
aF0.0
aF0.0
aL0L
aL0L
aL10L
aL12L
aL9L
aF0.0
aF0.0
aL0L
aL0L
aL12L
aF0.0
aL0L
aL10L
aL0L
aL10L
aF0.0
aL423591L
aL2557L
aL1L
ag14
aL6L
aL0L
aL0L
aL0L
aF0.0
aL0L
aF0.0
aL0L
aL0L
aL0L
aL0L
aL0L
aL0L
aL0L
aL0L
aL0L
aL0L
aL0L
aL0L
aL0L
aL11L
aL9L
aL5L
aL8L
aL0L
aL0L
aL0L
aL0L
aL0L
aL0L
aL0L
aL0L
aL0L
aL0L
aL0L
aL0L
aL0L
aL0L
aL0L
aL0L
aL0L
aL0L
aL0L
aL0L
aL0L
aL0L
aL0L
aL0L
aL0L
aL0L
aL0L
aL0L
aL0L
aL0L
aL0L
aL0L
aL0L
aL0L
aL0L
aL0L
aL0L
aL0L
aL0L
aL0L
aL0L
aL0L
aL0L
aL0L
aL0L
aL0L
aL0L
aL0L
aL0L
aL0L
aL0L
aL0L
aL0L
aL0L
aL0L
aL0L
aL0L
aL0L
aL0L
aL0L
aL0L
aL0L
aL0L
aL0L
aL0L
aL0L
aL0L
aL0L
aL0L
aL0L
aF0.0
aF0.0
aL0L
aL0L
aL0L
aL9L
aL9L
aL0L
aL0L
aL0L
aL0L
aL0L
aL0L
aL0L
aL0L
aL0L
aL0L
aL0L
aL0L
aL0L
aL0L
aL0L
aL0L
aL0L
aL0L
aL0L
aL0L
aL0L
aF0.0
aL0L
aF0.0
aL0L
aL5L
aL0L
aL0L
aL0L
aL0L
aL0L
aL0L
aL0L
aL0L
aF0.0
aL0L
aL0L
aL0L
aF0.0
aL0L
aL0L
aL0L
aL0L
aL0L
aF0.0
aL0L
aL0L
aL0L
aL0L
aL0L
aF0.0
aF0.0
aL0L
aF0.0
aL10L
aL0L
aL0L
aL0L
aL0L
aL0L
aL5L
aL0L
aL10L
aL0L
aL0L
aL0L
aF0.0
aF0.0
aF0.0
aL0L
aF0.0
aL0L
aL0L
aL0L
aL0L
aL0L
aL0L
aL0L
aL0L
aL0L
aL0L
aL0L
aL0L
aL0L
aL0L
aF0.0
aF0.0
aL0L
aL0L
aL10L
aL12L
aL10L
aF0.0
aF0.0
aL0L
aL0L
aL10L
aF0.0
aL0L
aL10L
aL0L
aL7L
aF0.0
aL423592L
aL2557L
aL1L
ag14
aL6L
aL0L
aL0L
aL0L
aF0.0
aL0L
aF0.0
aL0L
aL0L
aL0L
aL0L
aL0L
aL0L
aL0L
aL0L
aL0L
aL0L
aL0L
aL0L
aL0L
aL9L
aL9L
aL10L
aL6L
aL0L
aL0L
aL0L
aL0L
aL0L
aL0L
aL0L
aL0L
aL0L
aL0L
aL0L
aL0L
aL0L
aL0L
aL0L
aL0L
aL0L
aL0L
aL0L
aL0L
aL0L
aL0L
aL0L
aL0L
aL0L
aL0L
aL0L
aL0L
aL0L
aL0L
aL0L
aL0L
aL0L
aL0L
aL0L
aL0L
aL0L
aL0L
aL0L
aL0L
aL0L
aL0L
aL0L
aL0L
aL0L
aL0L
aL0L
aL0L
aL0L
aL0L
aL0L
aL0L
aL0L
aL0L
aL0L
aL0L
aL0L
aL0L
aL0L
aL0L
aL0L
aL0L
aL0L
aL0L
aL0L
aL0L
aL0L
aL0L
aL0L
aL0L
aF0.0
aF0.0
aL0L
aL0L
aL0L
aL10L
aL9L
aL0L
aL0L
aL0L
aL0L
aL0L
aL0L
aL0L
aL0L
aL0L
aL0L
aL0L
aL0L
aL0L
aL0L
aL0L
aL0L
aL0L
aL0L
aL0L
aL0L
aL0L
aF0.0
aL0L
aF0.0
aL0L
aL6L
aL0L
aL0L
aL0L
aL0L
aL0L
aL0L
aL0L
aL0L
aF0.0
aL0L
aL0L
aL0L
aF0.0
aL0L
aL0L
aL0L
aL0L
aL0L
aF0.0
aL0L
aL0L
aL0L
aL0L
aL0L
aF0.0
aF0.0
aL0L
aF0.0
aL8L
aL0L
aL0L
aL0L
aL0L
aL0L
aL5L
aL0L
aL9L
aL0L
aL0L
aL0L
aF0.0
aF0.0
aF0.0
aL0L
aF0.0
aL0L
aL0L
aL0L
aL0L
aL0L
aL0L
aL0L
aL0L
aL0L
aL0L
aL0L
aL0L
aL0L
aL0L
aF0.0
aF0.0
aL0L
aL0L
aL10L
aL12L
aL7L
aF0.0
aF0.0
aL0L
aL0L
aL8L
aF0.0
aL0L
aL9L
aL0L
aL9L
aF0.0
aL423593L
aL2557L
aL1L
ag14
aL9L
aL0L
aL0L
aL0L
aF0.0
aL0L
aF0.0
aL0L
aL0L
aL0L
aL0L
aL0L
aL0L
aL0L
aL0L
aL0L
aL0L
aL0L
aL0L
aL0L
aL10L
aL9L
aL8L
aL7L
aL0L
aL0L
aL0L
aL0L
aL0L
aL0L
aL0L
aL0L
aL0L
aL0L
aL0L
aL0L
aL0L
aL0L
aL0L
aL0L
aL0L
aL0L
aL0L
aL0L
aL0L
aL0L
aL0L
aL0L
aL0L
aL0L
aL0L
aL0L
aL0L
aL0L
aL0L
aL0L
aL0L
aL0L
aL0L
aL0L
aL0L
aL0L
aL0L
aL0L
aL0L
aL0L
aL0L
aL0L
aL0L
aL0L
aL0L
aL0L
aL0L
aL0L
aL0L
aL0L
aL0L
aL0L
aL0L
aL0L
aL0L
aL0L
aL0L
aL0L
aL0L
aL0L
aL0L
aL0L
aL0L
aL0L
aL0L
aL0L
aL0L
aL0L
aF0.0
aF0.0
aL0L
aL0L
aL0L
aL9L
aL10L
aL0L
aL0L
aL0L
aL0L
aL0L
aL13L
aL0L
aL0L
aL0L
aL0L
aL0L
aL0L
aL0L
aL0L
aL0L
aL0L
aL0L
aL0L
aL0L
aL0L
aL0L
aF0.0
aL0L
aF0.0
aL0L
aL8L
aL0L
aL0L
aL0L
aL0L
aL0L
aL0L
aL0L
aL0L
aF0.0
aL0L
aL0L
aL0L
aF0.0
aL0L
aL0L
aL0L
aL0L
aL0L
aF0.0
aL0L
aL0L
aL0L
aL0L
aL13L
aF0.0
aF0.0
aL0L
aF0.0
aL10L
aL0L
aL0L
aL0L
aL0L
aL0L
aL5L
aL0L
aL10L
aL0L
aL0L
aL0L
aF0.0
aF0.0
aF0.0
aL0L
aF0.0
aL0L
aL0L
aL0L
aL0L
aL0L
aL0L
aL0L
aL0L
aL0L
aL0L
aL0L
aL0L
aL0L
aL0L
aF0.0
aF0.0
aL0L
aL0L
aL10L
aL12L
aL11L
aF0.0
aF0.0
aL0L
aL0L
aL12L
aF0.0
aL0L
aL11L
aL0L
aL8L
aF0.0
aL423594L
aL2557L
aL1L
ag14
aL7L
aL0L
aL0L
aL0L
aF0.0
aL0L
aF0.0
aL0L
aL0L
aL0L
aL0L
aL0L
aL0L
aL0L
aL0L
aL0L
aL0L
aL0L
aL0L
aL0L
aL11L
aL10L
aL8L
aL9L
aL0L
aL0L
aL0L
aL0L
aL0L
aL0L
aL0L
aL0L
aL0L
aL0L
aL0L
aL0L
aL0L
aL0L
aL0L
aL0L
aL0L
aL0L
aL0L
aL0L
aL0L
aL0L
aL0L
aL0L
aL0L
aL0L
aL0L
aL0L
aL0L
aL0L
aL0L
aL0L
aL0L
aL0L
aL0L
aL0L
aL0L
aL0L
aL0L
aL0L
aL0L
aL0L
aL0L
aL0L
aL0L
aL0L
aL0L
aL0L
aL0L
aL0L
aL0L
aL0L
aL0L
aL0L
aL0L
aL0L
aL0L
aL0L
aL0L
aL0L
aL0L
aL0L
aL0L
aL0L
aL0L
aL0L
aL0L
aL0L
aL0L
aL0L
aF0.0
aF0.0
aL0L
aL0L
aL0L
aL10L
aL9L
aL0L
aL0L
aL0L
aL0L
aL0L
aL0L
aL0L
aL0L
aL0L
aL0L
aL0L
aL0L
aL0L
aL0L
aL0L
aL0L
aL0L
aL0L
aL0L
aL0L
aL0L
aF0.0
aL0L
aF0.0
aL0L
aL9L
aL0L
aL0L
aL0L
aL0L
aL0L
aL0L
aL0L
aL0L
aF0.0
aL0L
aL0L
aL0L
aF0.0
aL0L
aL0L
aL0L
aL0L
aL0L
aF0.0
aL0L
aL0L
aL0L
aL0L
aL0L
aF0.0
aF0.0
aL0L
aF0.0
aL11L
aL0L
aL0L
aL0L
aL0L
aL10L
aL0L
aL10L
aL0L
aL0L
aL0L
aL0L
aF0.0
aF0.0
aF0.0
aL11L
aF0.0
aL0L
aL0L
aL0L
aL0L
aL0L
aL0L
aL0L
aL0L
aL0L
aL0L
aL0L
aL0L
aL0L
aL0L
aF0.0
aF0.0
aL0L
aL0L
aL11L
aL12L
aL9L
aF0.0
aF0.0
aL0L
aL0L
aL10L
aF0.0
aL0L
aL9L
aL0L
aL10L
aF0.0
aL423595L
aL2557L
aL1L
ag14
aL7L
aL0L
aL0L
aL0L
aF0.0
aL0L
aF0.0
aL0L
aL0L
aL0L
aL0L
aL0L
aL0L
aL0L
aL0L
aL0L
aL0L
aL0L
aL0L
aL0L
aL11L
aL9L
aL8L
aL7L
aL0L
aL0L
aL0L
aL0L
aL0L
aL0L
aL0L
aL0L
aL0L
aL0L
aL0L
aL0L
aL0L
aL0L
aL0L
aL0L
aL0L
aL0L
aL0L
aL0L
aL0L
aL0L
aL0L
aL0L
aL0L
aL0L
aL0L
aL0L
aL0L
aL0L
aL0L
aL0L
aL0L
aL0L
aL0L
aL0L
aL0L
aL0L
aL0L
aL0L
aL0L
aL0L
aL0L
aL0L
aL0L
aL0L
aL0L
aL0L
aL0L
aL0L
aL0L
aL0L
aL0L
aL0L
aL0L
aL0L
aL0L
aL0L
aL0L
aL0L
aL0L
aL0L
aL0L
aL0L
aL0L
aL0L
aL0L
aL0L
aL0L
aL0L
aF0.0
aF0.0
aL0L
aL0L
aL0L
aL0L
aL10L
aL0L
aL0L
aL0L
aL0L
aL0L
aL0L
aL0L
aL0L
aL0L
aL0L
aL0L
aL0L
aL0L
aL0L
aL0L
aL0L
aL0L
aL0L
aL0L
aL0L
aL0L
aF0.0
aL0L
aF0.0
aL0L
aL9L
aL0L
aL0L
aL0L
aL0L
aL0L
aL0L
aL0L
aL0L
aF0.0
aL0L
aL0L
aL0L
aF0.0
aL0L
aL0L
aL0L
aL0L
aL0L
aF0.0
aL0L
aL0L
aL0L
aL0L
aL0L
aF0.0
aF0.0
aL0L
aF0.0
aL9L
aL0L
aL0L
aL0L
aL0L
aL10L
aL0L
aL10L
aL0L
aL0L
aL0L
aL0L
aF0.0
aF0.0
aF0.0
aL0L
aF0.0
aL0L
aL0L
aL0L
aL0L
aL0L
aL0L
aL0L
aL0L
aL0L
aL0L
aL0L
aL0L
aL0L
aL0L
aF0.0
aF0.0
aL0L
aL0L
aL12L
aL12L
aL10L
aF0.0
aF0.0
aL0L
aL0L
aL11L
aF0.0
aL0L
aL10L
aL0L
aL10L
aF0.0
aL423596L
aL2557L
aL1L
ag14
aL7L
aL0L
aL0L
aL0L
aF0.0
aL0L
aF0.0
aL0L
aL0L
aL0L
aL0L
aL0L
aL0L
aL0L
aL0L
aL0L
aL0L
aL0L
aL0L
aL0L
aL10L
aL9L
aL8L
aL9L
aL12L
aL0L
aL0L
aL0L
aL0L
aL0L
aL0L
aL0L
aL0L
aL0L
aL0L
aL0L
aL0L
aL0L
aL0L
aL0L
aL0L
aL0L
aL0L
aL0L
aL0L
aL0L
aL0L
aL0L
aL0L
aL0L
aL0L
aL0L
aL0L
aL0L
aL0L
aL0L
aL0L
aL0L
aL0L
aL0L
aL0L
aL0L
aL0L
aL0L
aL0L
aL0L
aL0L
aL0L
aL0L
aL0L
aL0L
aL0L
aL0L
aL0L
aL0L
aL0L
aL0L
aL0L
aL0L
aL0L
aL0L
aL0L
aL0L
aL0L
aL0L
aL0L
aL0L
aL0L
aL0L
aL0L
aL0L
aL0L
aL0L
aL0L
aF0.0
aF0.0
aL0L
aL0L
aL0L
aL10L
aL9L
aL0L
aL0L
aL0L
aL0L
aL0L
aL0L
aL0L
aL0L
aL0L
aL0L
aL0L
aL0L
aL0L
aL0L
aL0L
aL0L
aL0L
aL0L
aL0L
aL0L
aL0L
aF0.0
aL0L
aF0.0
aL0L
aL5L
aL0L
aL0L
aL0L
aL0L
aL0L
aL0L
aL0L
aL0L
aF0.0
aL0L
aL0L
aL0L
aF0.0
aL0L
aL0L
aL0L
aL0L
aL0L
aF0.0
aL0L
aL0L
aL0L
aL0L
aL0L
aF0.0
aF0.0
aL0L
aF0.0
aL8L
aL0L
aL0L
aL0L
aL0L
aL0L
aL8L
aL0L
aL10L
aL0L
aL0L
aL0L
aF0.0
aF0.0
aF0.0
aL0L
aF0.0
aL0L
aL0L
aL0L
aL0L
aL0L
aL0L
aL0L
aL0L
aL0L
aL0L
aL0L
aL0L
aL0L
aL0L
aF0.0
aF0.0
aL0L
aL0L
aL12L
aL13L
aL8L
aF0.0
aF0.0
aL0L
aL0L
aL9L
aF0.0
aL0L
aL10L
aL0L
aL10L
aF0.0
aL423598L
aL2557L
aL1L
ag14
aL6L
aL0L
aL0L
aL0L
aF0.0
aL0L
aF0.0
aL0L
aL0L
aL0L
aL0L
aL0L
aL0L
aL0L
aL0L
aL0L
aL0L
aL0L
aL0L
aL0L
aL9L
aL7L
aL8L
aL6L
aL0L
aL0L
aL0L
aL0L
aL0L
aL0L
aL0L
aL0L
aL0L
aL0L
aL0L
aL0L
aL0L
aL0L
aL0L
aL0L
aL0L
aL0L
aL0L
aL0L
aL0L
aL0L
aL0L
aL0L
aL0L
aL0L
aL0L
aL0L
aL0L
aL0L
aL0L
aL0L
aL0L
aL0L
aL0L
aL0L
aL0L
aL0L
aL0L
aL0L
aL0L
aL0L
aL0L
aL0L
aL0L
aL0L
aL0L
aL0L
aL0L
aL0L
aL0L
aL0L
aL0L
aL0L
aL0L
aL0L
aL0L
aL0L
aL0L
aL0L
aL0L
aL0L
aL0L
aL0L
aL0L
aL0L
aL0L
aL0L
aL0L
aL0L
aF0.0
aF0.0
aL0L
aL0L
aL0L
aL0L
aL0L
aL0L
aL0L
aL0L
aL0L
aL0L
aL0L
aL0L
aL0L
aL0L
aL0L
aL0L
aL0L
aL0L
aL0L
aL0L
aL0L
aL0L
aL0L
aL0L
aL0L
aL0L
aF0.0
aL0L
aF0.0
aL0L
aL0L
aL0L
aL0L
aL0L
aL0L
aL0L
aL0L
aL0L
aL0L
aF0.0
aL0L
aL0L
aL0L
aF0.0
aL0L
aL0L
aL0L
aL0L
aL0L
aF0.0
aL0L
aL0L
aL0L
aL0L
aL0L
aF0.0
aF0.0
aL0L
aF0.0
aL8L
aL0L
aL0L
aL0L
aL0L
aL0L
aL5L
aL0L
aL10L
aL0L
aL0L
aL0L
aF0.0
aF0.0
aF0.0
aL0L
aF0.0
aL0L
aL0L
aL0L
aL0L
aL0L
aL0L
aL0L
aL0L
aL0L
aL0L
aL0L
aL0L
aL0L
aL0L
aF0.0
aF0.0
aL0L
aL0L
aL0L
aL13L
aL8L
aF0.0
aF0.0
aL9L
aL0L
aL0L
aF0.0
aL0L
aL9L
aL0L
aL8L
aF0.0
aL423599L
aL2557L
aL1L
ag14
aL6L
aL0L
aL0L
aL0L
aF0.0
aL0L
aF0.0
aL0L
aL0L
aL0L
aL0L
aL0L
aL0L
aL0L
aL0L
aL0L
aL0L
aL0L
aL0L
aL0L
aL10L
aL11L
aL7L
aL8L
aL0L
aL0L
aL0L
aL0L
aL0L
aL0L
aL0L
aL0L
aL0L
aL0L
aL0L
aL0L
aL0L
aL0L
aL0L
aL0L
aL0L
aL0L
aL0L
aL0L
aL0L
aL0L
aL0L
aL0L
aL0L
aL0L
aL0L
aL0L
aL0L
aL0L
aL0L
aL0L
aL0L
aL0L
aL0L
aL0L
aL0L
aL0L
aL0L
aL0L
aL0L
aL0L
aL0L
aL0L
aL0L
aL0L
aL0L
aL0L
aL0L
aL0L
aL0L
aL0L
aL0L
aL0L
aL0L
aL0L
aL0L
aL0L
aL0L
aL0L
aL0L
aL0L
aL0L
aL0L
aL0L
aL0L
aL0L
aL0L
aL0L
aL0L
aF0.0
aF0.0
aL0L
aL0L
aL3L
aL11L
aL10L
aL0L
aL0L
aL0L
aL0L
aL0L
aL0L
aL0L
aL0L
aL0L
aL0L
aL0L
aL0L
aL0L
aL0L
aL0L
aL0L
aL0L
aL0L
aL0L
aL0L
aL0L
aF0.0
aL0L
aF0.0
aL0L
aL8L
aL0L
aL0L
aL0L
aL0L
aL0L
aL0L
aL0L
aL0L
aF0.0
aL0L
aL0L
aL0L
aF0.0
aL0L
aL0L
aL0L
aL0L
aL0L
aF0.0
aL0L
aL0L
aL0L
aL0L
aL0L
aF0.0
aF0.0
aL0L
aF0.0
aL10L
aL0L
aL0L
aL0L
aL0L
aL0L
aL8L
aL0L
aL10L
aL0L
aL0L
aL0L
aF0.0
aF0.0
aF0.0
aL10L
aF0.0
aL0L
aL0L
aL0L
aL0L
aL0L
aL0L
aL0L
aL0L
aL0L
aL0L
aL0L
aL0L
aL0L
aL0L
aF0.0
aF0.0
aL0L
aL0L
aL12L
aL13L
aL9L
aF0.0
aF0.0
aL0L
aL0L
aL10L
aF0.0
aL0L
aL10L
aL0L
aL13L
aF0.0
aL423600L
aL2557L
aL1L
ag14
aL12L
aL0L
aL0L
aL0L
aF0.0
aL0L
aF0.0
aL0L
aL0L
aL0L
aL0L
aL0L
aL0L
aL0L
aL0L
aL0L
aL0L
aL0L
aL0L
aL0L
aL11L
aL11L
aL10L
aL8L
aL0L
aL0L
aL0L
aL0L
aL0L
aL0L
aL0L
aL0L
aL0L
aL0L
aL0L
aL0L
aL0L
aL0L
aL0L
aL0L
aL0L
aL0L
aL0L
aL0L
aL0L
aL0L
aL0L
aL0L
aL0L
aL0L
aL0L
aL0L
aL0L
aL0L
aL0L
aL0L
aL0L
aL0L
aL0L
aL0L
aL0L
aL0L
aL0L
aL0L
aL0L
aL0L
aL0L
aL0L
aL0L
aL0L
aL0L
aL0L
aL0L
aL0L
aL0L
aL0L
aL0L
aL0L
aL0L
aL0L
aL0L
aL0L
aL0L
aL0L
aL0L
aL0L
aL0L
aL0L
aL0L
aL0L
aL0L
aL0L
aL0L
aL0L
aF0.0
aF0.0
aL0L
aL0L
aL0L
aL13L
aL12L
aL0L
aL0L
aL0L
aL0L
aL0L
aL0L
aL0L
aL0L
aL0L
aL0L
aL0L
aL0L
aL0L
aL0L
aL0L
aL0L
aL0L
aL0L
aL0L
aL0L
aL0L
aF0.0
aL0L
aF0.0
aL0L
aL0L
aL0L
aL0L
aL0L
aL0L
aL0L
aL0L
aL0L
aL0L
aF0.0
aL0L
aL0L
aL0L
aF0.0
aL0L
aL0L
aL0L
aL0L
aL0L
aF0.0
aL0L
aL0L
aL0L
aL13L
aL0L
aF0.0
aF0.0
aL0L
aF0.0
aL10L
aL0L
aL0L
aL0L
aL0L
aL9L
aL0L
aL10L
aL0L
aL0L
aL0L
aL0L
aF0.0
aF0.0
aF0.0
aL10L
aF0.0
aL0L
aL0L
aL0L
aL0L
aL0L
aL0L
aL0L
aL0L
aL0L
aL0L
aL0L
aL0L
aL0L
aL0L
aF0.0
aF0.0
aL0L
aL0L
aL12L
aL13L
aL10L
aF0.0
aF0.0
aL0L
aL0L
aL11L
aF0.0
aL0L
aL10L
aL0L
aL10L
aF0.0
aL423601L
aL2557L
aL1L
ag14
aL7L
aL0L
aL0L
aL0L
aF0.0
aL0L
aF0.0
aL0L
aL0L
aL0L
aL0L
aL0L
aL0L
aL0L
aL0L
aL0L
aL0L
aL0L
aL0L
aL0L
aL11L
aL10L
aL8L
aL8L
aL0L
aL0L
aL0L
aL0L
aL0L
aL0L
aL0L
aL0L
aL0L
aL0L
aL0L
aL0L
aL0L
aL0L
aL0L
aL0L
aL0L
aL0L
aL0L
aL0L
aL0L
aL0L
aL0L
aL0L
aL0L
aL0L
aL0L
aL0L
aL0L
aL0L
aL0L
aL0L
aL0L
aL0L
aL0L
aL0L
aL0L
aL0L
aL0L
aL0L
aL0L
aL0L
aL0L
aL0L
aL0L
aL0L
aL0L
aL0L
aL0L
aL0L
aL0L
aL0L
aL0L
aL0L
aL0L
aL0L
aL0L
aL0L
aL0L
aL0L
aL0L
aL0L
aL0L
aL0L
aL0L
aL0L
aL0L
aL0L
aL0L
aL0L
aF0.0
aF0.0
aL0L
aL0L
aL0L
aL9L
aL9L
aL0L
aL0L
aL0L
aL0L
aL0L
aL0L
aL0L
aL0L
aL0L
aL0L
aL0L
aL0L
aL0L
aL0L
aL0L
aL0L
aL0L
aL0L
aL0L
aL0L
aL0L
aF0.0
aL0L
aF0.0
aL0L
aL0L
aL0L
aL0L
aL0L
aL0L
aL0L
aL0L
aL0L
aL0L
aF0.0
aL0L
aL0L
aL0L
aF0.0
aL0L
aL0L
aL0L
aL0L
aL0L
aF0.0
aL0L
aL0L
aL0L
aL13L
aL0L
aF0.0
aF0.0
aL0L
aF0.0
aL11L
aL0L
aL0L
aL0L
aL0L
aL10L
aL0L
aL11L
aL0L
aL0L
aL0L
aL0L
aF0.0
aF0.0
aF0.0
aL11L
aF0.0
aL0L
aL0L
aL0L
aL0L
aL0L
aL0L
aL0L
aL0L
aL0L
aL0L
aL0L
aL0L
aL0L
aL0L
aF0.0
aF0.0
aL0L
aL0L
aL12L
aL13L
aL10L
aF0.0
aF0.0
aL0L
aL0L
aL0L
aF0.0
aL0L
aL11L
aL0L
aL12L
aF0.0
aL423602L
aL2557L
aL1L
ag14
aL7L
aL0L
aL0L
aL0L
aF0.0
aL0L
aF0.0
aL0L
aL0L
aL0L
aL0L
aL0L
aL0L
aL0L
aL0L
aL0L
aL0L
aL0L
aL0L
aL0L
aL10L
aL9L
aL7L
aL7L
aL0L
aL0L
aL0L
aL0L
aL0L
aL0L
aL0L
aL0L
aL0L
aL0L
aL0L
aL0L
aL0L
aL0L
aL0L
aL0L
aL0L
aL0L
aL0L
aL0L
aL0L
aL0L
aL0L
aL0L
aL0L
aL0L
aL0L
aL0L
aL0L
aL0L
aL0L
aL0L
aL0L
aL0L
aL0L
aL0L
aL0L
aL0L
aL0L
aL0L
aL0L
aL0L
aL0L
aL0L
aL0L
aL0L
aL0L
aL0L
aL0L
aL0L
aL0L
aL0L
aL0L
aL0L
aL0L
aL0L
aL0L
aL0L
aL0L
aL0L
aL0L
aL0L
aL0L
aL0L
aL0L
aL0L
aL0L
aL0L
aL0L
aL0L
aF0.0
aF0.0
aL0L
aL0L
aL0L
aL11L
aL0L
aL0L
aL0L
aL0L
aL0L
aL0L
aL0L
aL0L
aL0L
aL0L
aL0L
aL0L
aL0L
aL0L
aL0L
aL0L
aL0L
aL0L
aL0L
aL0L
aL0L
aL0L
aF0.0
aL0L
aF0.0
aL0L
aL9L
aL0L
aL0L
aL0L
aL0L
aL0L
aL0L
aL0L
aL0L
aF0.0
aL0L
aL0L
aL0L
aF0.0
aL0L
aL0L
aL0L
aL0L
aL0L
aF0.0
aL0L
aL0L
aL12L
aL0L
aL12L
aF0.0
aF0.0
aL0L
aF0.0
aL8L
aL0L
aL0L
aL0L
aL0L
aL0L
aL10L
aL0L
aL10L
aL0L
aL0L
aL0L
aF0.0
aF0.0
aF0.0
aL0L
aF0.0
aL0L
aL0L
aL0L
aL0L
aL0L
aL0L
aL0L
aL0L
aL0L
aL0L
aL0L
aL0L
aL0L
aL0L
aF0.0
aF0.0
aL0L
aL0L
aL12L
aL12L
aL8L
aF0.0
aF0.0
aL0L
aL0L
aL10L
aF0.0
aL0L
aL9L
aL0L
aL10L
aF0.0
aL423604L
aL2557L
aL1L
ag14
aL6L
aL0L
aL0L
aL0L
aF0.0
aL0L
aF0.0
aL0L
aL0L
aL0L
aL0L
aL0L
aL0L
aL0L
aL0L
aL0L
aL0L
aL0L
aL0L
aL0L
aL10L
aL9L
aL7L
aL6L
aL0L
aL0L
aL0L
aL0L
aL0L
aL0L
aL0L
aL0L
aL0L
aL0L
aL0L
aL0L
aL0L
aL0L
aL0L
aL0L
aL0L
aL0L
aL0L
aL0L
aL0L
aL0L
aL0L
aL0L
aL0L
aL0L
aL0L
aL0L
aL0L
aL0L
aL0L
aL0L
aL0L
aL0L
aL0L
aL0L
aL0L
aL0L
aL0L
aL0L
aL0L
aL0L
aL0L
aL0L
aL0L
aL0L
aL0L
aL0L
aL0L
aL0L
aL0L
aL0L
aL0L
aL0L
aL0L
aL0L
aL0L
aL0L
aL0L
aL0L
aL0L
aL0L
aL0L
aL0L
aL0L
aL0L
aL0L
aL0L
aL0L
aL0L
aF0.0
aF0.0
aL0L
aL0L
aL0L
aL9L
aL9L
aL0L
aL0L
aL0L
aL0L
aL0L
aL0L
aL0L
aL0L
aL0L
aL0L
aL0L
aL0L
aL0L
aL0L
aL0L
aL0L
aL0L
aL0L
aL0L
aL0L
aL0L
aF0.0
aL0L
aF0.0
aL0L
aL5L
aL0L
aL0L
aL0L
aL0L
aL0L
aL0L
aL0L
aL0L
aF0.0
aL0L
aL0L
aL0L
aF0.0
aL0L
aL0L
aL0L
aL0L
aL0L
aF0.0
aL0L
aL0L
aL0L
aL0L
aL0L
aF0.0
aF0.0
aL0L
aF0.0
aL10L
aL0L
aL0L
aL0L
aL0L
aL0L
aL8L
aL0L
aL10L
aL0L
aL0L
aL0L
aF0.0
aF0.0
aF0.0
aL0L
aF0.0
aL0L
aL0L
aL0L
aL0L
aL0L
aL0L
aL0L
aL0L
aL0L
aL0L
aL0L
aL0L
aL0L
aL0L
aF0.0
aF0.0
aL0L
aL0L
aL11L
aL13L
aL7L
aF0.0
aF0.0
aL0L
aL0L
aL10L
aF0.0
aL0L
aL10L
aL0L
aL8L
aF0.0
aL423605L
aL2557L
aL1L
ag14
aL6L
aL0L
aL0L
aL0L
aF0.0
aL0L
aF0.0
aL0L
aL0L
aL0L
aL0L
aL0L
aL0L
aL0L
aL0L
aL0L
aL0L
aL0L
aL0L
aL0L
aL10L
aL9L
aL7L
aL6L
aL0L
aL0L
aL0L
aL0L
aL0L
aL0L
aL0L
aL0L
aL0L
aL0L
aL0L
aL0L
aL0L
aL0L
aL0L
aL0L
aL0L
aL0L
aL0L
aL0L
aL0L
aL0L
aL0L
aL0L
aL0L
aL0L
aL0L
aL0L
aL0L
aL0L
aL0L
aL0L
aL0L
aL0L
aL0L
aL0L
aL0L
aL0L
aL0L
aL0L
aL0L
aL0L
aL0L
aL0L
aL0L
aL0L
aL0L
aL0L
aL0L
aL0L
aL0L
aL0L
aL0L
aL0L
aL0L
aL0L
aL0L
aL0L
aL0L
aL0L
aL0L
aL0L
aL0L
aL0L
aL0L
aL0L
aL0L
aL0L
aL0L
aL0L
aF0.0
aF0.0
aL0L
aL0L
aL0L
aL11L
aL10L
aL0L
aL0L
aL0L
aL0L
aL0L
aL0L
aL0L
aL0L
aL0L
aL0L
aL0L
aL0L
aL0L
aL0L
aL0L
aL0L
aL0L
aL0L
aL0L
aL0L
aL0L
aF0.0
aL0L
aF0.0
aL0L
aL7L
aL0L
aL0L
aL0L
aL0L
aL0L
aL0L
aL0L
aL0L
aF0.0
aL0L
aL0L
aL0L
aF0.0
aL0L
aL0L
aL0L
aL0L
aL0L
aF0.0
aL0L
aL0L
aL0L
aL0L
aL0L
aF0.0
aF0.0
aL0L
aF0.0
aL8L
aL0L
aL0L
aL0L
aL0L
aL0L
aL7L
aL0L
aL9L
aL0L
aL0L
aL0L
aF0.0
aF0.0
aF0.0
aL0L
aF0.0
aL0L
aL0L
aL0L
aL0L
aL0L
aL0L
aL0L
aL0L
aL0L
aL0L
aL0L
aL0L
aL0L
aL0L
aF0.0
aF0.0
aL0L
aL0L
aL12L
aL12L
aL7L
aF0.0
aF0.0
aL0L
aL0L
aL9L
aF0.0
aL0L
aL9L
aL0L
aL10L
aF0.0
aL423606L
aL2557L
aL1L
ag14
aL6L
aL0L
aL0L
aL0L
aF0.0
aL0L
aF0.0
aL0L
aL0L
aL0L
aL0L
aL0L
aL0L
aL0L
aL0L
aL0L
aL0L
aL0L
aL0L
aL0L
aL10L
aL9L
aL7L
aL9L
aL0L
aL0L
aL0L
aL0L
aL0L
aL0L
aL0L
aL0L
aL0L
aL0L
aL0L
aL0L
aL0L
aL0L
aL0L
aL0L
aL0L
aL0L
aL0L
aL0L
aL0L
aL0L
aL0L
aL0L
aL0L
aL0L
aL0L
aL0L
aL0L
aL0L
aL0L
aL0L
aL0L
aL0L
aL0L
aL0L
aL0L
aL0L
aL0L
aL0L
aL0L
aL0L
aL0L
aL0L
aL0L
aL0L
aL0L
aL0L
aL0L
aL0L
aL0L
aL0L
aL0L
aL0L
aL0L
aL0L
aL0L
aL0L
aL0L
aL0L
aL0L
aL0L
aL0L
aL0L
aL0L
aL0L
aL0L
aL0L
aL0L
aL0L
aF0.0
aF0.0
aL0L
aL0L
aL0L
aL0L
aL9L
aL0L
aL0L
aL0L
aL0L
aL0L
aL0L
aL0L
aL0L
aL0L
aL0L
aL0L
aL0L
aL0L
aL0L
aL0L
aL0L
aL0L
aL0L
aL0L
aL0L
aL0L
aF0.0
aL0L
aF0.0
aL0L
aL13L
aL0L
aL0L
aL0L
aL0L
aL0L
aL0L
aL0L
aL0L
aF0.0
aL0L
aL0L
aL0L
aF0.0
aL0L
aL0L
aL0L
aL0L
aL0L
aF0.0
aL0L
aL0L
aL0L
aL0L
aL0L
aF0.0
aF0.0
aL0L
aF0.0
aL10L
aL0L
aL0L
aL0L
aL0L
aL0L
aL11L
aL0L
aL11L
aL0L
aL0L
aL0L
aF0.0
aF0.0
aF0.0
aL0L
aF0.0
aL0L
aL0L
aL0L
aL0L
aL0L
aL0L
aL0L
aL0L
aL0L
aL0L
aL0L
aL0L
aL0L
aL0L
aF0.0
aF0.0
aL0L
aL0L
aL12L
aL12L
aL8L
aF0.0
aF0.0
aL0L
aL0L
aL9L
aF0.0
aL0L
aL9L
aL0L
aL10L
aF0.0
aL423607L
aL2557L
aL1L
ag14
aL9L
aL0L
aL0L
aL0L
aF0.0
aL0L
aF0.0
aL0L
aL0L
aL0L
aL0L
aL0L
aL0L
aL0L
aL0L
aL0L
aL0L
aL0L
aL0L
aL0L
aL11L
aL11L
aL7L
aL8L
aL0L
aL0L
aL0L
aL0L
aL0L
aL0L
aL0L
aL0L
aL0L
aL0L
aL0L
aL0L
aL0L
aL0L
aL0L
aL0L
aL0L
aL0L
aL0L
aL0L
aL0L
aL0L
aL0L
aL0L
aL0L
aL0L
aL0L
aL0L
aL0L
aL0L
aL0L
aL0L
aL0L
aL0L
aL0L
aL0L
aL0L
aL0L
aL0L
aL0L
aL0L
aL0L
aL0L
aL0L
aL0L
aL0L
aL0L
aL0L
aL0L
aL0L
aL0L
aL0L
aL0L
aL0L
aL0L
aL0L
aL0L
aL0L
aL0L
aL0L
aL0L
aL0L
aL0L
aL0L
aL0L
aL0L
aL0L
aL0L
aL0L
aL0L
aF0.0
aF0.0
aL0L
aL0L
aL3L
aL8L
aL8L
aL0L
aL0L
aL0L
aL0L
aL0L
aL0L
aL0L
aL0L
aL0L
aL0L
aL0L
aL0L
aL0L
aL0L
aL0L
aL0L
aL0L
aL0L
aL0L
aL0L
aL0L
aF0.0
aL0L
aF0.0
aL0L
aL9L
aL0L
aL0L
aL0L
aL0L
aL0L
aL0L
aL0L
aL0L
aF0.0
aL0L
aL0L
aL0L
aF0.0
aL0L
aL0L
aL0L
aL0L
aL0L
aF0.0
aL0L
aL0L
aL0L
aL0L
aL0L
aF0.0
aF0.0
aL0L
aF0.0
aL8L
aL0L
aL0L
aL0L
aL0L
aL0L
aL10L
aL0L
aL10L
aL0L
aL10L
aL0L
aF0.0
aF0.0
aF0.0
aL0L
aF0.0
aL0L
aL0L
aL0L
aL0L
aL0L
aL0L
aL0L
aL0L
aL0L
aL0L
aL0L
aL0L
aL0L
aL0L
aF0.0
aF0.0
aL0L
aL0L
aL12L
aL12L
aL8L
aF0.0
aF0.0
aL0L
aL0L
aL11L
aF0.0
aL0L
aL11L
aL0L
aL10L
aF0.0
aL423608L
aL2557L
aL1L
ag14
aL8L
aL0L
aL0L
aL0L
aF0.0
aL0L
aF0.0
aL0L
aL0L
aL0L
aL0L
aL0L
aL0L
aL0L
aL0L
aL0L
aL0L
aL0L
aL0L
aL0L
aL11L
aL12L
aL12L
aL8L
aL0L
aL0L
aL0L
aL0L
aL0L
aL0L
aL0L
aL0L
aL0L
aL0L
aL0L
aL0L
aL0L
aL0L
aL0L
aL0L
aL0L
aL0L
aL0L
aL0L
aL0L
aL0L
aL0L
aL0L
aL0L
aL0L
aL0L
aL0L
aL0L
aL0L
aL0L
aL0L
aL0L
aL0L
aL0L
aL0L
aL0L
aL0L
aL0L
aL0L
aL0L
aL0L
aL0L
aL0L
aL0L
aL0L
aL0L
aL0L
aL0L
aL0L
aL0L
aL0L
aL0L
aL0L
aL0L
aL0L
aL0L
aL0L
aL0L
aL0L
aL0L
aL0L
aL0L
aL0L
aL0L
aL0L
aL0L
aL0L
aL0L
aL0L
aF0.0
aF0.0
aL0L
aL0L
aL0L
aL10L
aL12L
aL0L
aL0L
aL0L
aL0L
aL0L
aL0L
aL0L
aL0L
aL0L
aL0L
aL0L
aL0L
aL0L
aL0L
aL0L
aL0L
aL0L
aL0L
aL0L
aL0L
aL0L
aF0.0
aL0L
aF0.0
aL0L
aL5L
aL0L
aL0L
aL0L
aL0L
aL0L
aL0L
aL0L
aL0L
aF0.0
aL0L
aL0L
aL0L
aF0.0
aL0L
aL0L
aL0L
aL0L
aL0L
aF0.0
aL0L
aL0L
aL0L
aL0L
aL0L
aF0.0
aF0.0
aL0L
aF0.0
aL9L
aL0L
aL0L
aL0L
aL0L
aL8L
aL0L
aL9L
aL0L
aL0L
aL0L
aL0L
aF0.0
aF0.0
aF0.0
aL9L
aF0.0
aL0L
aL0L
aL0L
aL0L
aL0L
aL0L
aL0L
aL0L
aL0L
aL0L
aL0L
aL0L
aL0L
aL0L
aF0.0
aF0.0
aL0L
aL0L
aL12L
aL12L
aL8L
aF0.0
aF0.0
aL0L
aL0L
aL10L
aF0.0
aL0L
aL9L
aL0L
aL8L
aF0.0
aL423609L
aL2557L
aL1L
ag14
aL6L
aL0L
aL0L
aL0L
aF0.0
aL0L
aF0.0
aL0L
aL0L
aL0L
aL0L
aL0L
aL0L
aL0L
aL0L
aL0L
aL0L
aL0L
aL0L
aL0L
aL10L
aL9L
aL7L
aL7L
aL0L
aL0L
aL0L
aL0L
aL0L
aL0L
aL0L
aL0L
aL0L
aL0L
aL0L
aL0L
aL0L
aL0L
aL0L
aL0L
aL0L
aL0L
aL0L
aL0L
aL0L
aL0L
aL0L
aL0L
aL0L
aL0L
aL0L
aL0L
aL0L
aL0L
aL0L
aL0L
aL0L
aL0L
aL0L
aL0L
aL0L
aL0L
aL0L
aL0L
aL0L
aL0L
aL0L
aL0L
aL0L
aL0L
aL0L
aL0L
aL0L
aL0L
aL0L
aL0L
aL0L
aL0L
aL0L
aL0L
aL0L
aL0L
aL0L
aL0L
aL0L
aL0L
aL0L
aL0L
aL0L
aL0L
aL0L
aL0L
aL0L
aL0L
aF0.0
aF0.0
aL0L
aL0L
aL0L
aL9L
aL9L
aL0L
aL0L
aL0L
aL0L
aL0L
aL0L
aL0L
aL0L
aL0L
aL0L
aL0L
aL0L
aL0L
aL0L
aL0L
aL0L
aL0L
aL0L
aL0L
aL0L
aL0L
aF0.0
aL0L
aF0.0
aL0L
aL9L
aL0L
aL0L
aL0L
aL0L
aL0L
aL0L
aL0L
aL0L
aF0.0
aL0L
aL0L
aL0L
aF0.0
aL0L
aL0L
aL0L
aL0L
aL0L
aF0.0
aL0L
aL0L
aL0L
aL0L
aL0L
aF0.0
aF0.0
aL0L
aF0.0
aL9L
aL0L
aL0L
aL0L
aL0L
aL0L
aL10L
aL0L
aL10L
aL0L
aL0L
aL0L
aF0.0
aF0.0
aF0.0
aL0L
aF0.0
aL0L
aL0L
aL0L
aL0L
aL0L
aL0L
aL0L
aL0L
aL0L
aL0L
aL0L
aL0L
aL0L
aL0L
aF0.0
aF0.0
aL0L
aL0L
aL13L
aL12L
aL9L
aF0.0
aF0.0
aL0L
aL0L
aL10L
aF0.0
aL0L
aL9L
aL0L
aL10L
aF0.0
aL423610L
aL2557L
aL1L
ag14
aL11L
aL0L
aL0L
aL0L
aF0.0
aL0L
aF0.0
aL0L
aL0L
aL0L
aL0L
aL0L
aL0L
aL0L
aL0L
aL0L
aL0L
aL0L
aL0L
aL0L
aL9L
aL11L
aL12L
aL8L
aL0L
aL0L
aL0L
aL0L
aL0L
aL0L
aL0L
aL0L
aL0L
aL0L
aL0L
aL0L
aL0L
aL0L
aL0L
aL0L
aL0L
aL0L
aL0L
aL0L
aL0L
aL0L
aL0L
aL0L
aL0L
aL0L
aL0L
aL0L
aL0L
aL0L
aL0L
aL0L
aL0L
aL0L
aL0L
aL0L
aL0L
aL0L
aL0L
aL0L
aL0L
aL0L
aL0L
aL0L
aL0L
aL0L
aL0L
aL0L
aL0L
aL0L
aL0L
aL0L
aL0L
aL0L
aL0L
aL0L
aL0L
aL0L
aL0L
aL0L
aL0L
aL0L
aL0L
aL0L
aL0L
aL0L
aL0L
aL0L
aL0L
aL0L
aF0.0
aF0.0
aL0L
aL0L
aL0L
aL9L
aL9L
aL0L
aL0L
aL0L
aL0L
aL0L
aL0L
aL0L
aL0L
aL0L
aL0L
aL0L
aL0L
aL0L
aL0L
aL0L
aL0L
aL0L
aL0L
aL0L
aL0L
aL0L
aF0.0
aL0L
aF0.0
aL0L
aL9L
aL0L
aL0L
aL0L
aL0L
aL0L
aL0L
aL0L
aL0L
aF0.0
aL0L
aL0L
aL0L
aF0.0
aL0L
aL0L
aL0L
aL0L
aL0L
aF0.0
aL0L
aL0L
aL0L
aL0L
aL0L
aF0.0
aF0.0
aL0L
aF0.0
aL10L
aL0L
aL0L
aL0L
aL0L
aL0L
aL9L
aL0L
aL10L
aL0L
aL0L
aL0L
aF0.0
aF0.0
aF0.0
aL9L
aF0.0
aL0L
aL0L
aL0L
aL0L
aL0L
aL0L
aL0L
aL0L
aL0L
aL0L
aL0L
aL0L
aL0L
aL0L
aF0.0
aF0.0
aL10L
aL0L
aL11L
aL11L
aL8L
aF0.0
aF0.0
aL0L
aL0L
aL10L
aF0.0
aL0L
aL10L
aL0L
aL11L
aF0.0
aL423611L
aL2557L
aL1L
ag14
aL7L
aL0L
aL0L
aL0L
aF0.0
aL0L
aF0.0
aL0L
aL0L
aL0L
aL0L
aL0L
aL0L
aL0L
aL0L
aL0L
aL0L
aL0L
aL0L
aL0L
aL11L
aL9L
aL8L
aL8L
aL0L
aL0L
aL0L
aL0L
aL0L
aL0L
aL0L
aL0L
aL0L
aL0L
aL0L
aL0L
aL0L
aL0L
aL0L
aL0L
aL0L
aL0L
aL0L
aL0L
aL0L
aL0L
aL0L
aL0L
aL0L
aL0L
aL0L
aL0L
aL0L
aL0L
aL0L
aL0L
aL0L
aL0L
aL0L
aL0L
aL0L
aL0L
aL0L
aL0L
aL0L
aL0L
aL0L
aL0L
aL0L
aL0L
aL0L
aL0L
aL0L
aL0L
aL0L
aL0L
aL0L
aL0L
aL0L
aL0L
aL0L
aL0L
aL0L
aL0L
aL0L
aL0L
aL0L
aL0L
aL0L
aL0L
aL0L
aL0L
aL0L
aL0L
aF0.0
aF0.0
aL0L
aL0L
aL0L
aL12L
aL12L
aL0L
aL0L
aL0L
aL0L
aL0L
aL0L
aL0L
aL0L
aL0L
aL0L
aL0L
aL0L
aL0L
aL0L
aL0L
aL0L
aL0L
aL0L
aL0L
aL0L
aL0L
aF0.0
aL0L
aF0.0
aL0L
aL0L
aL0L
aL0L
aL0L
aL0L
aL0L
aL0L
aL0L
aL0L
aF0.0
aL0L
aL0L
aL0L
aF0.0
aL0L
aL0L
aL0L
aL0L
aL0L
aF0.0
aL0L
aL0L
aL0L
aL13L
aL0L
aF0.0
aF0.0
aL0L
aF0.0
aL12L
aL0L
aL0L
aL0L
aL0L
aL11L
aL0L
aL11L
aL0L
aL0L
aL0L
aL0L
aF0.0
aF0.0
aF0.0
aL11L
aF0.0
aL0L
aL0L
aL0L
aL0L
aL0L
aL0L
aL0L
aL0L
aL0L
aL0L
aL0L
aL0L
aL0L
aL0L
aF0.0
aF0.0
aL0L
aL0L
aL13L
aL13L
aL13L
aF0.0
aF0.0
aL0L
aL0L
aL0L
aF0.0
aL0L
aL11L
aL0L
aL10L
aF0.0
aL423612L
aL2557L
aL1L
ag14
aL10L
aL0L
aL0L
aL0L
aF0.0
aL0L
aF0.0
aL0L
aL0L
aL0L
aL0L
aL0L
aL0L
aL0L
aL0L
aL0L
aL0L
aL0L
aL0L
aL0L
aL12L
aL11L
aL8L
aL9L
aL0L
aL0L
aL0L
aL0L
aL0L
aL0L
aL0L
aL0L
aL0L
aL0L
aL0L
aL0L
aL0L
aL0L
aL0L
aL0L
aL0L
aL0L
aL0L
aL0L
aL0L
aL0L
aL0L
aL0L
aL0L
aL0L
aL0L
aL0L
aL0L
aL0L
aL0L
aL0L
aL0L
aL0L
aL0L
aL0L
aL0L
aL0L
aL0L
aL0L
aL0L
aL0L
aL0L
aL0L
aL0L
aL0L
aL0L
aL0L
aL0L
aL0L
aL0L
aL0L
aL0L
aL0L
aL0L
aL0L
aL0L
aL0L
aL0L
aL0L
aL0L
aL0L
aL0L
aL0L
aL0L
aL0L
aL0L
aL0L
aL0L
aL0L
aF0.0
aF0.0
aL0L
aL0L
aL0L
aL12L
aL12L
aL0L
aL0L
aL0L
aL0L
aL0L
aL0L
aL0L
aL0L
aL0L
aL0L
aL0L
aL0L
aL0L
aL0L
aL0L
aL0L
aL0L
aL0L
aL0L
aL0L
aL0L
aF0.0
aL0L
aF0.0
aL0L
aL9L
aL0L
aL0L
aL0L
aL0L
aL0L
aL0L
aL0L
aL0L
aF0.0
aL0L
aL0L
aL0L
aF0.0
aL0L
aL0L
aL0L
aL0L
aL0L
aF0.0
aL0L
aL0L
aL0L
aL0L
aL0L
aF0.0
aF0.0
aL0L
aF0.0
aL11L
aL0L
aL0L
aL0L
aL0L
aL10L
aL0L
aL9L
aL0L
aL0L
aL0L
aL0L
aF0.0
aF0.0
aF0.0
aL0L
aF0.0
aL0L
aL0L
aL0L
aL0L
aL0L
aL0L
aL0L
aL0L
aL0L
aL0L
aL0L
aL0L
aL0L
aL0L
aF0.0
aF0.0
aL0L
aL0L
aL13L
aL13L
aL9L
aF0.0
aF0.0
aL0L
aL0L
aL10L
aF0.0
aL0L
aL9L
aL0L
aL13L
aF0.0
aL423613L
aL2557L
aL1L
ag14
aL6L
aL0L
aL0L
aL0L
aF0.0
aL0L
aF0.0
aL0L
aL0L
aL0L
aL0L
aL0L
aL0L
aL0L
aL0L
aL0L
aL0L
aL0L
aL0L
aL0L
aL10L
aL9L
aL8L
aL7L
aL0L
aL0L
aL0L
aL0L
aL0L
aL0L
aL0L
aL0L
aL0L
aL0L
aL0L
aL0L
aL0L
aL0L
aL0L
aL0L
aL0L
aL0L
aL0L
aL0L
aL0L
aL0L
aL0L
aL0L
aL0L
aL0L
aL0L
aL0L
aL0L
aL0L
aL0L
aL0L
aL0L
aL0L
aL0L
aL0L
aL0L
aL0L
aL0L
aL0L
aL0L
aL0L
aL0L
aL0L
aL0L
aL0L
aL0L
aL0L
aL0L
aL0L
aL0L
aL0L
aL0L
aL0L
aL0L
aL0L
aL0L
aL0L
aL0L
aL0L
aL0L
aL0L
aL0L
aL0L
aL0L
aL0L
aL0L
aL0L
aL0L
aL0L
aF0.0
aF0.0
aL0L
aL0L
aL0L
aL9L
aL9L
aL0L
aL0L
aL0L
aL0L
aL0L
aL0L
aL0L
aL0L
aL0L
aL0L
aL0L
aL0L
aL0L
aL0L
aL0L
aL0L
aL0L
aL0L
aL0L
aL0L
aL0L
aF0.0
aL0L
aF0.0
aL0L
aL6L
aL0L
aL0L
aL0L
aL0L
aL0L
aL0L
aL0L
aL0L
aF0.0
aL0L
aL0L
aL0L
aF0.0
aL0L
aL0L
aL0L
aL0L
aL0L
aF0.0
aL0L
aL0L
aL0L
aL0L
aL0L
aF0.0
aF0.0
aL0L
aF0.0
aL10L
aL0L
aL0L
aL0L
aL0L
aL0L
aL8L
aL0L
aL11L
aL0L
aL0L
aL0L
aF0.0
aF0.0
aF0.0
aL0L
aF0.0
aL0L
aL0L
aL0L
aL0L
aL0L
aL0L
aL0L
aL0L
aL0L
aL0L
aL0L
aL0L
aL0L
aL0L
aF0.0
aF0.0
aL0L
aL0L
aL13L
aL13L
aL7L
aF0.0
aF0.0
aL0L
aL0L
aL8L
aF0.0
aL0L
aL9L
aL0L
aL9L
aF0.0
aL423614L
aL2557L
aL1L
ag14
aL7L
aL0L
aL0L
aL0L
aF0.0
aL0L
aF0.0
aL0L
aL0L
aL0L
aL0L
aL0L
aL0L
aL0L
aL0L
aL0L
aL0L
aL0L
aL0L
aL0L
aL10L
aL9L
aL7L
aL8L
aL0L
aL0L
aL0L
aL0L
aL0L
aL0L
aL0L
aL0L
aL0L
aL0L
aL0L
aL0L
aL0L
aL0L
aL0L
aL0L
aL0L
aL0L
aL0L
aL0L
aL0L
aL0L
aL0L
aL0L
aL0L
aL0L
aL0L
aL0L
aL0L
aL0L
aL0L
aL0L
aL0L
aL0L
aL0L
aL0L
aL0L
aL0L
aL0L
aL0L
aL0L
aL0L
aL0L
aL0L
aL0L
aL0L
aL0L
aL0L
aL0L
aL0L
aL0L
aL0L
aL0L
aL0L
aL0L
aL0L
aL0L
aL0L
aL0L
aL0L
aL0L
aL0L
aL0L
aL0L
aL0L
aL0L
aL0L
aL0L
aL0L
aL0L
aF0.0
aF0.0
aL0L
aL0L
aL0L
aL11L
aL9L
aL0L
aL0L
aL0L
aL0L
aL0L
aL0L
aL0L
aL0L
aL0L
aL0L
aL0L
aL0L
aL0L
aL0L
aL0L
aL0L
aL0L
aL0L
aL0L
aL0L
aL0L
aF0.0
aL0L
aF0.0
aL0L
aL5L
aL0L
aL0L
aL0L
aL0L
aL0L
aL0L
aL0L
aL0L
aF0.0
aL0L
aL0L
aL0L
aF0.0
aL0L
aL0L
aL0L
aL0L
aL0L
aF0.0
aL0L
aL0L
aL0L
aL0L
aL0L
aF0.0
aF0.0
aL0L
aF0.0
aL9L
aL0L
aL0L
aL0L
aL0L
aL0L
aL5L
aL0L
aL9L
aL0L
aL0L
aL0L
aF0.0
aF0.0
aF0.0
aL0L
aF0.0
aL0L
aL0L
aL0L
aL0L
aL0L
aL0L
aL0L
aL0L
aL0L
aL0L
aL0L
aL0L
aL0L
aL0L
aF0.0
aF0.0
aL0L
aL0L
aL11L
aL11L
aL9L
aF0.0
aF0.0
aL0L
aL0L
aL10L
aF0.0
aL0L
aL9L
aL0L
aL9L
aF0.0
aL423615L
aL2557L
aL1L
ag14
aL10L
aL0L
aL0L
aL0L
aF0.0
aL0L
aF0.0
aL0L
aL0L
aL0L
aL0L
aL0L
aL0L
aL0L
aL0L
aL0L
aL0L
aL0L
aL0L
aL0L
aL11L
aL12L
aL8L
aL8L
aL0L
aL0L
aL0L
aL0L
aL0L
aL0L
aL0L
aL0L
aL0L
aL0L
aL0L
aL0L
aL0L
aL0L
aL0L
aL0L
aL0L
aL0L
aL0L
aL0L
aL0L
aL0L
aL0L
aL0L
aL0L
aL0L
aL0L
aL0L
aL0L
aL0L
aL0L
aL0L
aL0L
aL0L
aL0L
aL0L
aL0L
aL0L
aL0L
aL0L
aL0L
aL0L
aL0L
aL0L
aL0L
aL0L
aL0L
aL0L
aL0L
aL0L
aL0L
aL0L
aL0L
aL0L
aL0L
aL0L
aL0L
aL0L
aL0L
aL0L
aL0L
aL0L
aL0L
aL0L
aL0L
aL0L
aL0L
aL0L
aL0L
aL0L
aF0.0
aF0.0
aL0L
aL0L
aL0L
aL11L
aL10L
aL0L
aL0L
aL0L
aL0L
aL0L
aL0L
aL0L
aL0L
aL0L
aL0L
aL0L
aL0L
aL0L
aL0L
aL0L
aL0L
aL0L
aL0L
aL0L
aL0L
aL0L
aF0.0
aL0L
aF0.0
aL0L
aL0L
aL0L
aL0L
aL0L
aL0L
aL0L
aL0L
aL0L
aL0L
aF0.0
aL0L
aL0L
aL0L
aF0.0
aL0L
aL0L
aL0L
aL0L
aL0L
aF0.0
aL0L
aL0L
aL0L
aL13L
aL0L
aF0.0
aF0.0
aL0L
aF0.0
aL12L
aL0L
aL0L
aL0L
aL0L
aL11L
aL0L
aL11L
aL0L
aL0L
aL0L
aL0L
aF0.0
aF0.0
aF0.0
aL10L
aF0.0
aL0L
aL0L
aL0L
aL0L
aL0L
aL0L
aL0L
aL0L
aL0L
aL0L
aL0L
aL0L
aL0L
aL0L
aF0.0
aF0.0
aL0L
aL0L
aL11L
aL13L
aL12L
aF0.0
aF0.0
aL0L
aL0L
aL0L
aF0.0
aL0L
aL10L
aL0L
aL12L
aF0.0
aL423616L
aL2557L
aL1L
ag14
aL8L
aL0L
aL0L
aL0L
aF0.0
aL0L
aF0.0
aL0L
aL0L
aL0L
aL0L
aL0L
aL0L
aL0L
aL0L
aL0L
aL0L
aL0L
aL0L
aL0L
aL11L
aL11L
aL7L
aL8L
aL0L
aL0L
aL0L
aL0L
aL0L
aL0L
aL0L
aL0L
aL0L
aL0L
aL0L
aL0L
aL0L
aL0L
aL0L
aL0L
aL0L
aL0L
aL0L
aL0L
aL0L
aL0L
aL0L
aL0L
aL0L
aL0L
aL0L
aL0L
aL0L
aL0L
aL0L
aL0L
aL0L
aL0L
aL0L
aL0L
aL0L
aL0L
aL0L
aL0L
aL0L
aL0L
aL0L
aL0L
aL0L
aL0L
aL0L
aL0L
aL0L
aL0L
aL0L
aL0L
aL0L
aL0L
aL0L
aL0L
aL0L
aL0L
aL0L
aL0L
aL0L
aL0L
aL0L
aL0L
aL0L
aL0L
aL0L
aL0L
aL0L
aL0L
aF0.0
aF0.0
aL0L
aL0L
aL0L
aL10L
aL10L
aL0L
aL0L
aL0L
aL0L
aL0L
aL0L
aL0L
aL0L
aL0L
aL0L
aL0L
aL0L
aL0L
aL0L
aL0L
aL0L
aL0L
aL0L
aL0L
aL0L
aL0L
aF0.0
aL0L
aF0.0
aL0L
aL5L
aL0L
aL0L
aL0L
aL0L
aL0L
aL0L
aL0L
aL0L
aF0.0
aL0L
aL0L
aL0L
aF0.0
aL0L
aL0L
aL0L
aL0L
aL0L
aF0.0
aL0L
aL0L
aL0L
aL0L
aL0L
aF0.0
aF0.0
aL0L
aF0.0
aL9L
aL0L
aL0L
aL0L
aL0L
aL0L
aL5L
aL0L
aL11L
aL0L
aL0L
aL0L
aF0.0
aF0.0
aF0.0
aL0L
aF0.0
aL0L
aL0L
aL0L
aL0L
aL0L
aL0L
aL0L
aL0L
aL0L
aL0L
aL0L
aL0L
aL0L
aL0L
aF0.0
aF0.0
aL0L
aL0L
aL12L
aL11L
aL9L
aF0.0
aF0.0
aL0L
aL0L
aL11L
aF0.0
aL0L
aL10L
aL0L
aL9L
aF0.0
aL423617L
aL2557L
aL1L
ag14
aL10L
aL0L
aL0L
aL0L
aF0.0
aL0L
aF0.0
aL0L
aL0L
aL0L
aL0L
aL0L
aL0L
aL0L
aL0L
aL0L
aL0L
aL0L
aL0L
aL0L
aL12L
aL12L
aL8L
aL9L
aL0L
aL0L
aL0L
aL0L
aL0L
aL0L
aL0L
aL0L
aL0L
aL0L
aL0L
aL0L
aL0L
aL0L
aL0L
aL0L
aL0L
aL0L
aL0L
aL0L
aL0L
aL0L
aL0L
aL0L
aL0L
aL0L
aL0L
aL0L
aL0L
aL0L
aL0L
aL0L
aL0L
aL0L
aL0L
aL0L
aL0L
aL0L
aL0L
aL0L
aL0L
aL0L
aL0L
aL0L
aL0L
aL0L
aL0L
aL0L
aL0L
aL0L
aL0L
aL0L
aL0L
aL0L
aL0L
aL0L
aL0L
aL0L
aL0L
aL0L
aL0L
aL0L
aL0L
aL0L
aL0L
aL0L
aL0L
aL0L
aL0L
aL0L
aF0.0
aF0.0
aL0L
aL0L
aL0L
aL0L
aL11L
aL0L
aL0L
aL0L
aL0L
aL0L
aL0L
aL0L
aL0L
aL0L
aL0L
aL0L
aL0L
aL0L
aL0L
aL0L
aL0L
aL0L
aL0L
aL0L
aL0L
aL0L
aF0.0
aL0L
aF0.0
aL0L
aL9L
aL0L
aL0L
aL0L
aL0L
aL0L
aL0L
aL0L
aL0L
aF0.0
aL0L
aL0L
aL0L
aF0.0
aL0L
aL0L
aL0L
aL0L
aL0L
aF0.0
aL0L
aL0L
aL0L
aL0L
aL0L
aF0.0
aF0.0
aL0L
aF0.0
aL11L
aL0L
aL0L
aL0L
aL0L
aL0L
aL10L
aL0L
aL11L
aL0L
aL0L
aL0L
aF0.0
aF0.0
aF0.0
aL11L
aF0.0
aL0L
aL0L
aL0L
aL0L
aL0L
aL0L
aL0L
aL0L
aL0L
aL0L
aL0L
aL0L
aL0L
aL0L
aF0.0
aF0.0
aL0L
aL0L
aL13L
aL13L
aL9L
aF0.0
aF0.0
aL0L
aL0L
aL10L
aF0.0
aL0L
aL10L
aL0L
aL11L
aF0.0
aL423618L
aL2557L
aL1L
ag14
aL7L
aL0L
aL0L
aL0L
aF0.0
aL0L
aF0.0
aL0L
aL0L
aL0L
aL0L
aL0L
aL0L
aL0L
aL0L
aL0L
aL0L
aL0L
aL0L
aL0L
aL11L
aL11L
aL8L
aL7L
aL0L
aL0L
aL0L
aL0L
aL0L
aL0L
aL0L
aL0L
aL0L
aL0L
aL0L
aL0L
aL0L
aL0L
aL0L
aL0L
aL0L
aL0L
aL0L
aL0L
aL0L
aL0L
aL0L
aL0L
aL0L
aL0L
aL0L
aL0L
aL0L
aL0L
aL0L
aL0L
aL0L
aL0L
aL0L
aL0L
aL0L
aL0L
aL0L
aL0L
aL0L
aL0L
aL0L
aL0L
aL0L
aL0L
aL0L
aL0L
aL0L
aL0L
aL0L
aL0L
aL0L
aL0L
aL0L
aL0L
aL0L
aL0L
aL0L
aL0L
aL0L
aL0L
aL0L
aL0L
aL0L
aL0L
aL0L
aL0L
aL0L
aL0L
aF0.0
aF0.0
aL0L
aL0L
aL3L
aL10L
aL9L
aL0L
aL0L
aL0L
aL0L
aL0L
aL0L
aL0L
aL0L
aL0L
aL0L
aL0L
aL0L
aL0L
aL0L
aL0L
aL0L
aL0L
aL0L
aL0L
aL0L
aL0L
aF0.0
aL0L
aF0.0
aL0L
aL0L
aL0L
aL0L
aL0L
aL0L
aL0L
aL0L
aL0L
aL0L
aF0.0
aL0L
aL0L
aL0L
aF0.0
aL0L
aL0L
aL0L
aL0L
aL0L
aF0.0
aL0L
aL0L
aL0L
aL0L
aL0L
aF0.0
aF0.0
aL0L
aF0.0
aL8L
aL0L
aL0L
aL0L
aL0L
aL9L
aL0L
aL12L
aL0L
aL0L
aL0L
aL0L
aF0.0
aF0.0
aF0.0
aL9L
aF0.0
aL0L
aL0L
aL0L
aL0L
aL0L
aL0L
aL0L
aL0L
aL0L
aL0L
aL0L
aL0L
aL0L
aL0L
aF0.0
aF0.0
aL0L
aL0L
aL12L
aL11L
aL8L
aF0.0
aF0.0
aL0L
aL0L
aL0L
aF0.0
aL0L
aL9L
aL0L
aL9L
aF0.0
aL423619L
aL2557L
aL1L
ag14
aL7L
aL0L
aL0L
aL0L
aF0.0
aL0L
aF0.0
aL0L
aL0L
aL0L
aL0L
aL0L
aL0L
aL0L
aL0L
aL0L
aL0L
aL0L
aL0L
aL0L
aL11L
aL9L
aL7L
aL8L
aL0L
aL0L
aL0L
aL0L
aL0L
aL0L
aL0L
aL0L
aL0L
aL0L
aL0L
aL0L
aL0L
aL0L
aL0L
aL0L
aL0L
aL0L
aL0L
aL0L
aL0L
aL0L
aL0L
aL0L
aL0L
aL0L
aL0L
aL0L
aL0L
aL0L
aL0L
aL0L
aL0L
aL0L
aL0L
aL0L
aL0L
aL0L
aL0L
aL0L
aL0L
aL0L
aL0L
aL0L
aL0L
aL0L
aL0L
aL0L
aL0L
aL0L
aL0L
aL0L
aL0L
aL0L
aL0L
aL0L
aL0L
aL0L
aL0L
aL0L
aL0L
aL0L
aL0L
aL0L
aL0L
aL0L
aL0L
aL0L
aL0L
aL0L
aF0.0
aF0.0
aL0L
aL0L
aL0L
aL10L
aL8L
aL0L
aL0L
aL0L
aL0L
aL0L
aL0L
aL0L
aL0L
aL0L
aL0L
aL0L
aL0L
aL0L
aL0L
aL0L
aL0L
aL0L
aL0L
aL0L
aL0L
aL0L
aF0.0
aL0L
aF0.0
aL0L
aL10L
aL0L
aL0L
aL0L
aL0L
aL0L
aL0L
aL0L
aL0L
aF0.0
aL0L
aL0L
aL0L
aF0.0
aL0L
aL0L
aL0L
aL0L
aL0L
aF0.0
aL0L
aL0L
aL0L
aL0L
aL0L
aF0.0
aF0.0
aL0L
aF0.0
aL8L
aL0L
aL0L
aL0L
aL0L
aL0L
aL8L
aL0L
aL11L
aL0L
aL0L
aL0L
aF0.0
aF0.0
aF0.0
aL0L
aF0.0
aL0L
aL0L
aL0L
aL0L
aL0L
aL0L
aL0L
aL0L
aL0L
aL0L
aL0L
aL0L
aL0L
aL0L
aF0.0
aF0.0
aL0L
aL0L
aL12L
aL12L
aL9L
aF0.0
aF0.0
aL0L
aL0L
aL10L
aF0.0
aL0L
aL9L
aL0L
aL12L
aF0.0
aL423621L
aL2557L
aL1L
ag14
aL6L
aL0L
aL0L
aL0L
aF0.0
aL0L
aF0.0
aL0L
aL0L
aL0L
aL0L
aL0L
aL0L
aL0L
aL0L
aL0L
aL0L
aL0L
aL0L
aL0L
aL9L
aL10L
aL7L
aL7L
aL0L
aL0L
aL0L
aL0L
aL0L
aL0L
aL0L
aL0L
aL0L
aL0L
aL0L
aL0L
aL0L
aL0L
aL0L
aL0L
aL0L
aL0L
aL0L
aL0L
aL0L
aL0L
aL0L
aL0L
aL0L
aL0L
aL0L
aL0L
aL0L
aL0L
aL0L
aL0L
aL0L
aL0L
aL0L
aL0L
aL0L
aL0L
aL0L
aL0L
aL0L
aL0L
aL0L
aL0L
aL0L
aL0L
aL0L
aL0L
aL0L
aL0L
aL0L
aL0L
aL0L
aL0L
aL0L
aL0L
aL0L
aL0L
aL0L
aL0L
aL0L
aL0L
aL0L
aL0L
aL0L
aL0L
aL0L
aL0L
aL0L
aL0L
aF0.0
aF0.0
aL0L
aL0L
aL3L
aL13L
aL10L
aL0L
aL0L
aL0L
aL0L
aL0L
aL0L
aL0L
aL0L
aL0L
aL0L
aL0L
aL0L
aL0L
aL0L
aL0L
aL0L
aL0L
aL0L
aL0L
aL0L
aL0L
aF0.0
aL0L
aF0.0
aL0L
aL0L
aL0L
aL0L
aL0L
aL0L
aL0L
aL0L
aL0L
aL0L
aF0.0
aL0L
aL0L
aL0L
aF0.0
aL0L
aL0L
aL0L
aL0L
aL0L
aF0.0
aL0L
aL0L
aL0L
aL0L
aL0L
aF0.0
aF0.0
aL0L
aF0.0
aL9L
aL0L
aL0L
aL0L
aL0L
aL0L
aL10L
aL0L
aL12L
aL0L
aL9L
aL0L
aF0.0
aF0.0
aF0.0
aL0L
aF0.0
aL0L
aL0L
aL0L
aL0L
aL0L
aL0L
aL0L
aL0L
aL0L
aL0L
aL0L
aL0L
aL0L
aL0L
aF0.0
aF0.0
aL0L
aL0L
aL13L
aL13L
aL10L
aF0.0
aF0.0
aL0L
aL0L
aL10L
aF0.0
aL9L
aL10L
aL0L
aL10L
aF0.0
aL423623L
aL2557L
aL1L
ag14
aL11L
aL0L
aL0L
aL0L
aF0.0
aL0L
aF0.0
aL0L
aL0L
aL0L
aL0L
aL0L
aL0L
aL0L
aL0L
aL0L
aL0L
aL0L
aL0L
aL0L
aL12L
aL12L
aL10L
aL8L
aL0L
aL0L
aL0L
aL0L
aL0L
aL0L
aL0L
aL0L
aL0L
aL0L
aL0L
aL0L
aL0L
aL0L
aL0L
aL0L
aL0L
aL0L
aL0L
aL0L
aL0L
aL0L
aL0L
aL0L
aL0L
aL0L
aL0L
aL0L
aL0L
aL0L
aL0L
aL0L
aL0L
aL0L
aL0L
aL0L
aL0L
aL0L
aL0L
aL0L
aL0L
aL0L
aL0L
aL0L
aL0L
aL0L
aL0L
aL0L
aL0L
aL0L
aL0L
aL0L
aL0L
aL0L
aL0L
aL0L
aL0L
aL0L
aL0L
aL0L
aL0L
aL0L
aL0L
aL0L
aL0L
aL0L
aL0L
aL0L
aL0L
aL0L
aF0.0
aF0.0
aL0L
aL0L
aL0L
aL12L
aL13L
aL0L
aL0L
aL0L
aL0L
aL0L
aL0L
aL0L
aL0L
aL0L
aL0L
aL0L
aL0L
aL0L
aL0L
aL0L
aL0L
aL0L
aL0L
aL0L
aL0L
aL0L
aF0.0
aL0L
aF0.0
aL0L
aL12L
aL0L
aL0L
aL0L
aL0L
aL0L
aL0L
aL0L
aL0L
aF0.0
aL0L
aL0L
aL0L
aF0.0
aL0L
aL0L
aL0L
aL0L
aL0L
aF0.0
aL0L
aL0L
aL0L
aL0L
aL0L
aF0.0
aF0.0
aL0L
aF0.0
aL11L
aL0L
aL0L
aL0L
aL0L
aL13L
aL0L
aL12L
aL0L
aL0L
aL0L
aL0L
aF0.0
aF0.0
aF0.0
aL0L
aF0.0
aL0L
aL0L
aL0L
aL0L
aL0L
aL0L
aL0L
aL0L
aL0L
aL0L
aL0L
aL0L
aL0L
aL0L
aF0.0
aF0.0
aL0L
aL0L
aL13L
aL12L
aL9L
aF0.0
aF0.0
aL0L
aL0L
aL11L
aF0.0
aL0L
aL10L
aL0L
aL13L
aF0.0
aL423624L
aL2557L
aL1L
ag14
aL6L
aL0L
aL0L
aL0L
aF0.0
aL0L
aF0.0
aL0L
aL0L
aL0L
aL0L
aL0L
aL0L
aL0L
aL0L
aL0L
aL0L
aL0L
aL0L
aL0L
aL10L
aL9L
aL7L
aL7L
aL0L
aL0L
aL0L
aL0L
aL0L
aL0L
aL0L
aL0L
aL0L
aL0L
aL0L
aL0L
aL0L
aL0L
aL0L
aL0L
aL0L
aL0L
aL0L
aL0L
aL0L
aL0L
aL0L
aL0L
aL0L
aL0L
aL0L
aL0L
aL0L
aL0L
aL0L
aL0L
aL0L
aL0L
aL0L
aL0L
aL0L
aL0L
aL0L
aL0L
aL0L
aL0L
aL0L
aL0L
aL0L
aL0L
aL0L
aL0L
aL0L
aL0L
aL0L
aL0L
aL0L
aL0L
aL0L
aL0L
aL0L
aL0L
aL0L
aL0L
aL0L
aL0L
aL0L
aL0L
aL0L
aL0L
aL0L
aL0L
aL0L
aL0L
aF0.0
aF0.0
aL0L
aL0L
aL0L
aL11L
aL9L
aL0L
aL0L
aL0L
aL0L
aL0L
aL0L
aL0L
aL0L
aL0L
aL0L
aL0L
aL0L
aL0L
aL0L
aL0L
aL0L
aL0L
aL0L
aL0L
aL0L
aL0L
aF0.0
aL0L
aF0.0
aL0L
aL5L
aL0L
aL0L
aL0L
aL0L
aL0L
aL0L
aL0L
aL0L
aF0.0
aL0L
aL0L
aL0L
aF0.0
aL0L
aL0L
aL0L
aL0L
aL0L
aF0.0
aL0L
aL0L
aL0L
aL0L
aL0L
aF0.0
aF0.0
aL0L
aF0.0
aL10L
aL0L
aL0L
aL0L
aL0L
aL10L
aL0L
aL10L
aL0L
aL0L
aL0L
aL0L
aF0.0
aF0.0
aF0.0
aL0L
aF0.0
aL0L
aL0L
aL0L
aL0L
aL0L
aL0L
aL0L
aL0L
aL0L
aL0L
aL0L
aL0L
aL0L
aL0L
aF0.0
aF0.0
aL0L
aL0L
aL12L
aL12L
aL8L
aF0.0
aF0.0
aL0L
aL0L
aL10L
aF0.0
aL0L
aL10L
aL0L
aL9L
aF0.0
aL423625L
aL2557L
aL1L
ag14
aL6L
aL0L
aL0L
aL0L
aF0.0
aL0L
aF0.0
aL0L
aL0L
aL0L
aL0L
aL0L
aL0L
aL0L
aL0L
aL0L
aL0L
aL0L
aL0L
aL0L
aL10L
aL12L
aL11L
aL6L
aL0L
aL0L
aL0L
aL0L
aL0L
aL0L
aL0L
aL0L
aL0L
aL0L
aL0L
aL0L
aL0L
aL0L
aL0L
aL0L
aL0L
aL0L
aL0L
aL0L
aL0L
aL0L
aL0L
aL0L
aL0L
aL0L
aL0L
aL0L
aL0L
aL0L
aL0L
aL0L
aL0L
aL0L
aL0L
aL0L
aL0L
aL0L
aL0L
aL0L
aL0L
aL0L
aL0L
aL0L
aL0L
aL0L
aL0L
aL0L
aL0L
aL0L
aL0L
aL0L
aL0L
aL0L
aL0L
aL0L
aL0L
aL0L
aL0L
aL0L
aL0L
aL0L
aL0L
aL0L
aL0L
aL0L
aL0L
aL0L
aL0L
aL0L
aF0.0
aF0.0
aL0L
aL0L
aL3L
aL0L
aL0L
aL0L
aL0L
aL0L
aL0L
aL0L
aL0L
aL0L
aL0L
aL0L
aL0L
aL0L
aL0L
aL0L
aL0L
aL0L
aL0L
aL0L
aL0L
aL0L
aL0L
aL0L
aF0.0
aL0L
aF0.0
aL0L
aL5L
aL0L
aL0L
aL0L
aL0L
aL0L
aL0L
aL0L
aL0L
aF0.0
aL0L
aL0L
aL0L
aF0.0
aL0L
aL0L
aL0L
aL0L
aL0L
aF0.0
aL0L
aL0L
aL0L
aL0L
aL0L
aF0.0
aF0.0
aL0L
aF0.0
aL7L
aL0L
aL0L
aL0L
aL0L
aL0L
aL6L
aL0L
aL9L
aL0L
aL0L
aL0L
aF0.0
aF0.0
aF0.0
aL0L
aF0.0
aL0L
aL0L
aL0L
aL0L
aL0L
aL0L
aL0L
aL0L
aL0L
aL0L
aL0L
aL0L
aL0L
aL0L
aF0.0
aF0.0
aL0L
aL0L
aL12L
aL5L
aL7L
aF0.0
aF0.0
aL0L
aL0L
aL9L
aF0.0
aL0L
aL5L
aL0L
aL7L
aF0.0
aL423627L
aL2557L
aL1L
ag14
aL6L
aL0L
aL11L
aL0L
aF0.0
aL0L
aF0.0
aL0L
aL0L
aL0L
aL0L
aL0L
aL0L
aL0L
aL0L
aL0L
aL0L
aL0L
aL0L
aL0L
aL10L
aL9L
aL9L
aL6L
aL0L
aL0L
aL0L
aL0L
aL0L
aL0L
aL0L
aL0L
aL0L
aL0L
aL0L
aL0L
aL0L
aL0L
aL0L
aL0L
aL0L
aL0L
aL0L
aL0L
aL0L
aL0L
aL0L
aL0L
aL0L
aL0L
aL0L
aL0L
aL0L
aL0L
aL0L
aL0L
aL0L
aL0L
aL0L
aL0L
aL0L
aL0L
aL0L
aL0L
aL0L
aL0L
aL0L
aL0L
aL0L
aL0L
aL0L
aL0L
aL0L
aL0L
aL0L
aL0L
aL0L
aL0L
aL0L
aL0L
aL0L
aL0L
aL0L
aL0L
aL0L
aL0L
aL0L
aL0L
aL0L
aL0L
aL0L
aL0L
aL0L
aL0L
aF0.0
aF0.0
aL0L
aL0L
aL0L
aL13L
aL11L
aL0L
aL0L
aL0L
aL0L
aL0L
aL0L
aL0L
aL0L
aL0L
aL0L
aL0L
aL0L
aL0L
aL0L
aL0L
aL0L
aL0L
aL0L
aL0L
aL0L
aL0L
aF0.0
aL0L
aF0.0
aL0L
aL6L
aL0L
aL0L
aL0L
aL0L
aL0L
aL0L
aL0L
aL0L
aF0.0
aL0L
aL0L
aL0L
aF0.0
aL0L
aL0L
aL0L
aL0L
aL0L
aF0.0
aL0L
aL0L
aL0L
aL0L
aL0L
aF0.0
aF0.0
aL0L
aF0.0
aL9L
aL0L
aL0L
aL0L
aL0L
aL0L
aL8L
aL0L
aL10L
aL0L
aL0L
aL0L
aF0.0
aF0.0
aF0.0
aL0L
aF0.0
aL0L
aL0L
aL0L
aL0L
aL0L
aL0L
aL0L
aL0L
aL0L
aL0L
aL0L
aL0L
aL0L
aL0L
aF0.0
aF0.0
aL0L
aL0L
aL13L
aL12L
aL9L
aF0.0
aF0.0
aL0L
aL0L
aL9L
aF0.0
aL0L
aL9L
aL0L
aL9L
aF0.0
aL423628L
aL2557L
aL1L
ag14
aL6L
aL0L
aL0L
aL0L
aF0.0
aL0L
aF0.0
aL0L
aL0L
aL0L
aL0L
aL0L
aL0L
aL0L
aL0L
aL0L
aL0L
aL0L
aL0L
aL0L
aL10L
aL9L
aL8L
aL6L
aL0L
aL0L
aL0L
aL0L
aL0L
aL0L
aL0L
aL0L
aL0L
aL0L
aL0L
aL0L
aL0L
aL0L
aL0L
aL0L
aL0L
aL0L
aL0L
aL0L
aL0L
aL0L
aL0L
aL0L
aL0L
aL0L
aL0L
aL0L
aL0L
aL0L
aL0L
aL0L
aL0L
aL0L
aL0L
aL0L
aL0L
aL0L
aL0L
aL0L
aL0L
aL0L
aL0L
aL0L
aL0L
aL0L
aL0L
aL0L
aL0L
aL0L
aL0L
aL0L
aL0L
aL0L
aL0L
aL0L
aL0L
aL0L
aL0L
aL0L
aL0L
aL0L
aL0L
aL0L
aL0L
aL0L
aL0L
aL0L
aL0L
aL0L
aF0.0
aF0.0
aL0L
aL0L
aL0L
aL12L
aL11L
aL0L
aL0L
aL0L
aL0L
aL0L
aL0L
aL0L
aL0L
aL0L
aL0L
aL0L
aL0L
aL0L
aL0L
aL0L
aL0L
aL0L
aL0L
aL0L
aL0L
aL0L
aF0.0
aL0L
aF0.0
aL0L
aL0L
aL0L
aL0L
aL0L
aL0L
aL0L
aL0L
aL0L
aL0L
aF0.0
aL0L
aL0L
aL0L
aF0.0
aL0L
aL0L
aL0L
aL0L
aL0L
aF0.0
aL0L
aL0L
aL0L
aL0L
aL0L
aF0.0
aF0.0
aL0L
aF0.0
aL10L
aL0L
aL0L
aL0L
aL0L
aL10L
aL0L
aL10L
aL0L
aL0L
aL0L
aL0L
aF0.0
aF0.0
aF0.0
aL0L
aF0.0
aL0L
aL0L
aL0L
aL0L
aL0L
aL0L
aL0L
aL0L
aL0L
aL0L
aL0L
aL0L
aL0L
aL0L
aF0.0
aF0.0
aL0L
aL0L
aL13L
aL11L
aL10L
aF0.0
aF0.0
aL0L
aL0L
aL12L
aF0.0
aL0L
aL10L
aL0L
aL9L
aF0.0
aL423630L
aL2557L
aL1L
ag14
aL6L
aL0L
aL0L
aL0L
aF0.0
aL0L
aF0.0
aL0L
aL0L
aL0L
aL0L
aL0L
aL0L
aL0L
aL0L
aL0L
aL0L
aL0L
aL0L
aL0L
aL11L
aL9L
aL7L
aL8L
aL0L
aL0L
aL0L
aL0L
aL0L
aL0L
aL0L
aL0L
aL0L
aL0L
aL0L
aL0L
aL0L
aL0L
aL0L
aL0L
aL0L
aL0L
aL0L
aL0L
aL0L
aL0L
aL0L
aL0L
aL0L
aL0L
aL0L
aL0L
aL0L
aL0L
aL0L
aL0L
aL0L
aL0L
aL0L
aL0L
aL0L
aL0L
aL0L
aL0L
aL0L
aL0L
aL0L
aL0L
aL0L
aL0L
aL0L
aL0L
aL0L
aL0L
aL0L
aL0L
aL0L
aL0L
aL0L
aL0L
aL0L
aL0L
aL0L
aL0L
aL0L
aL0L
aL0L
aL0L
aL0L
aL0L
aL0L
aL0L
aL0L
aL0L
aF0.0
aF0.0
aL0L
aL0L
aL0L
aL0L
aL5L
aL0L
aL0L
aL0L
aL0L
aL0L
aL0L
aL0L
aL0L
aL0L
aL0L
aL0L
aL0L
aL0L
aL0L
aL0L
aL0L
aL0L
aL0L
aL0L
aL0L
aL0L
aF0.0
aL0L
aF0.0
aL0L
aL8L
aL0L
aL0L
aL0L
aL0L
aL0L
aL0L
aL0L
aL0L
aF0.0
aL0L
aL0L
aL0L
aF0.0
aL0L
aL0L
aL0L
aL0L
aL0L
aF0.0
aL0L
aL0L
aL0L
aL0L
aL0L
aF0.0
aF0.0
aL0L
aF0.0
aL8L
aL0L
aL0L
aL0L
aL0L
aL0L
aL5L
aL0L
aL9L
aL0L
aL0L
aL0L
aF0.0
aF0.0
aF0.0
aL0L
aF0.0
aL0L
aL0L
aL0L
aL0L
aL0L
aL0L
aL0L
aL0L
aL0L
aL0L
aL0L
aL0L
aL0L
aL0L
aF0.0
aF0.0
aL0L
aL0L
aL11L
aL11L
aL8L
aF0.0
aF0.0
aL0L
aL0L
aL10L
aF0.0
aL0L
aL9L
aL0L
aL8L
aF0.0
aL423631L
aL2557L
aL1L
ag14
aL6L
aL0L
aL0L
aL0L
aF0.0
aL0L
aF0.0
aL0L
aL0L
aL0L
aL0L
aL0L
aL0L
aL0L
aL0L
aL0L
aL0L
aL0L
aL0L
aL0L
aL10L
aL9L
aL8L
aL7L
aL0L
aL0L
aL0L
aL0L
aL0L
aL0L
aL0L
aL0L
aL0L
aL0L
aL0L
aL0L
aL0L
aL0L
aL0L
aL0L
aL0L
aL0L
aL0L
aL0L
aL0L
aL0L
aL0L
aL0L
aL0L
aL0L
aL0L
aL0L
aL0L
aL0L
aL0L
aL0L
aL0L
aL0L
aL0L
aL0L
aL0L
aL0L
aL0L
aL0L
aL0L
aL0L
aL0L
aL0L
aL0L
aL0L
aL0L
aL0L
aL0L
aL0L
aL0L
aL0L
aL0L
aL0L
aL0L
aL0L
aL0L
aL0L
aL0L
aL0L
aL0L
aL0L
aL0L
aL0L
aL0L
aL0L
aL0L
aL0L
aL0L
aL0L
aF0.0
aF0.0
aL0L
aL0L
aL0L
aL11L
aL9L
aL0L
aL0L
aL0L
aL0L
aL0L
aL0L
aL0L
aL0L
aL0L
aL0L
aL0L
aL0L
aL0L
aL0L
aL0L
aL0L
aL0L
aL0L
aL0L
aL0L
aL0L
aF0.0
aL0L
aF0.0
aL0L
aL5L
aL0L
aL0L
aL0L
aL0L
aL0L
aL0L
aL0L
aL0L
aF0.0
aL0L
aL0L
aL0L
aF0.0
aL0L
aL0L
aL0L
aL0L
aL0L
aF0.0
aL0L
aL0L
aL0L
aL0L
aL0L
aF0.0
aF0.0
aL0L
aF0.0
aL9L
aL0L
aL0L
aL0L
aL0L
aL0L
aL5L
aL0L
aL10L
aL0L
aL0L
aL0L
aF0.0
aF0.0
aF0.0
aL0L
aF0.0
aL0L
aL0L
aL0L
aL0L
aL0L
aL0L
aL0L
aL0L
aL0L
aL0L
aL0L
aL0L
aL0L
aL0L
aF0.0
aF0.0
aL0L
aL0L
aL12L
aL13L
aL8L
aF0.0
aF0.0
aL0L
aL0L
aL10L
aF0.0
aL0L
aL9L
aL0L
aL8L
aF0.0
aL423632L
aL2556L
aL1L
ag14
aL7L
aL0L
aL0L
aL0L
aF0.0
aL0L
aF0.0
aL0L
aL0L
aL0L
aL0L
aL0L
aL0L
aL0L
aL0L
aL0L
aL0L
aL0L
aL0L
aL0L
aL0L
aL0L
aL0L
aL0L
aL0L
aL0L
aL0L
aL0L
aL0L
aL0L
aL0L
aL0L
aL0L
aL0L
aL0L
aL0L
aL0L
aL0L
aL0L
aL0L
aL0L
aL0L
aL0L
aL0L
aL0L
aL0L
aL0L
aL0L
aL0L
aL0L
aL0L
aL0L
aL0L
aL0L
aL0L
aL0L
aL0L
aL0L
aL0L
aL0L
aL0L
aL0L
aL0L
aL0L
aL0L
aL0L
aL0L
aL0L
aL0L
aL0L
aL0L
aL0L
aL0L
aL0L
aL0L
aL0L
aL0L
aL0L
aL0L
aL0L
aL0L
aL0L
aL0L
aL0L
aL0L
aL0L
aL0L
aL0L
aL0L
aL0L
aL0L
aL0L
aL0L
aL0L
aF0.0
aF0.0
aL0L
aL0L
aL0L
aL0L
aL0L
aL0L
aL0L
aL0L
aL0L
aL0L
aL0L
aL0L
aL0L
aL0L
aL0L
aL0L
aL0L
aL0L
aL0L
aL0L
aL0L
aL0L
aL0L
aL0L
aL0L
aL0L
aF0.0
aL0L
aF0.0
aL0L
aL0L
aL0L
aL0L
aL0L
aL0L
aL0L
aL0L
aL0L
aL0L
aF0.0
aL0L
aL0L
aL0L
aF0.0
aL0L
aL0L
aL0L
aL0L
aL0L
aF0.0
aL0L
aL0L
aL0L
aL0L
aL0L
aF0.0
aF0.0
aL0L
aF0.0
aL0L
aL0L
aL0L
aL0L
aL0L
aL0L
aL0L
aL0L
aL0L
aL0L
aL0L
aL0L
aF0.0
aF0.0
aF0.0
aL0L
aF0.0
aL0L
aL0L
aL0L
aL0L
aL0L
aL0L
aL0L
aL0L
aL0L
aL0L
aL0L
aL0L
aL0L
aL0L
aF0.0
aF0.0
aL0L
aL0L
aL0L
aL0L
aL0L
aF0.0
aF0.0
aL0L
aL0L
aL0L
aF0.0
aL0L
aL0L
aL0L
aL0L
aF0.0
aL423633L
aL2557L
aL1L
ag14
aL6L
aL0L
aL0L
aL0L
aF0.0
aL0L
aF0.0
aL0L
aL0L
aL0L
aL0L
aL0L
aL0L
aL0L
aL0L
aL0L
aL0L
aL0L
aL0L
aL0L
aL10L
aL9L
aL7L
aL6L
aL0L
aL0L
aL0L
aL0L
aL0L
aL0L
aL0L
aL0L
aL0L
aL0L
aL0L
aL0L
aL0L
aL0L
aL0L
aL0L
aL0L
aL0L
aL0L
aL0L
aL0L
aL0L
aL0L
aL0L
aL0L
aL0L
aL0L
aL0L
aL0L
aL0L
aL0L
aL0L
aL0L
aL0L
aL0L
aL0L
aL0L
aL0L
aL0L
aL0L
aL0L
aL0L
aL0L
aL0L
aL0L
aL0L
aL0L
aL0L
aL0L
aL0L
aL0L
aL0L
aL0L
aL0L
aL0L
aL0L
aL0L
aL0L
aL0L
aL0L
aL0L
aL0L
aL0L
aL0L
aL0L
aL0L
aL0L
aL0L
aL0L
aL0L
aF0.0
aF0.0
aL0L
aL0L
aL0L
aL10L
aL10L
aL0L
aL0L
aL0L
aL0L
aL0L
aL0L
aL0L
aL0L
aL0L
aL0L
aL0L
aL0L
aL0L
aL0L
aL0L
aL0L
aL0L
aL0L
aL0L
aL0L
aL0L
aF0.0
aL0L
aF0.0
aL0L
aL0L
aL0L
aL0L
aL0L
aL0L
aL0L
aL0L
aL0L
aL0L
aF0.0
aL0L
aL0L
aL0L
aF0.0
aL0L
aL0L
aL0L
aL0L
aL0L
aF0.0
aL0L
aL0L
aL0L
aL0L
aL0L
aF0.0
aF0.0
aL0L
aF0.0
aL10L
aL0L
aL0L
aL0L
aL0L
aL7L
aL0L
aL10L
aL0L
aL0L
aL0L
aL0L
aF0.0
aF0.0
aF0.0
aL0L
aF0.0
aL0L
aL0L
aL0L
aL0L
aL0L
aL0L
aL0L
aL0L
aL0L
aL0L
aL0L
aL0L
aL0L
aL0L
aF0.0
aF0.0
aL0L
aL0L
aL12L
aL12L
aL5L
aF0.0
aF0.0
aL0L
aL0L
aL10L
aF0.0
aL0L
aL10L
aL0L
aL9L
aF0.0
aL423634L
aL2557L
aL1L
ag14
aL7L
aL0L
aL0L
aL0L
aF0.0
aL0L
aF0.0
aL0L
aL0L
aL0L
aL0L
aL0L
aL0L
aL0L
aL0L
aL0L
aL0L
aL0L
aL0L
aL0L
aL9L
aL11L
aL9L
aL8L
aL0L
aL0L
aL0L
aL0L
aL0L
aL0L
aL0L
aL0L
aL0L
aL0L
aL0L
aL0L
aL0L
aL0L
aL0L
aL0L
aL0L
aL0L
aL0L
aL0L
aL0L
aL0L
aL0L
aL0L
aL0L
aL0L
aL0L
aL0L
aL0L
aL0L
aL0L
aL0L
aL0L
aL0L
aL0L
aL0L
aL0L
aL0L
aL0L
aL0L
aL0L
aL0L
aL0L
aL0L
aL0L
aL0L
aL0L
aL0L
aL0L
aL0L
aL0L
aL0L
aL0L
aL0L
aL0L
aL0L
aL0L
aL0L
aL0L
aL0L
aL0L
aL0L
aL0L
aL0L
aL0L
aL0L
aL0L
aL0L
aL0L
aL0L
aF0.0
aF0.0
aL0L
aL0L
aL0L
aL12L
aL10L
aL0L
aL0L
aL0L
aL0L
aL0L
aL0L
aL0L
aL0L
aL0L
aL0L
aL0L
aL0L
aL0L
aL0L
aL0L
aL0L
aL0L
aL0L
aL0L
aL0L
aL0L
aF0.0
aL0L
aF0.0
aL0L
aL6L
aL0L
aL0L
aL0L
aL0L
aL0L
aL0L
aL0L
aL0L
aF0.0
aL0L
aL0L
aL0L
aF0.0
aL0L
aL0L
aL0L
aL0L
aL0L
aF0.0
aL0L
aL0L
aL0L
aL0L
aL0L
aF0.0
aF0.0
aL0L
aF0.0
aL11L
aL0L
aL0L
aL0L
aL0L
aL8L
aL0L
aL9L
aL0L
aL0L
aL0L
aL0L
aF0.0
aF0.0
aF0.0
aL11L
aF0.0
aL0L
aL0L
aL0L
aL0L
aL0L
aL0L
aL0L
aL0L
aL0L
aL0L
aL0L
aL0L
aL0L
aL0L
aF0.0
aF0.0
aL0L
aL0L
aL12L
aL12L
aL10L
aF0.0
aF0.0
aL0L
aL0L
aL9L
aF0.0
aL0L
aL9L
aL0L
aL9L
aF0.0
aL423635L
aL2557L
aL1L
ag14
aL6L
aL0L
aL5L
aL0L
aF0.0
aL0L
aF0.0
aL0L
aL0L
aL0L
aL0L
aL0L
aL0L
aL0L
aL0L
aL0L
aL0L
aL0L
aL0L
aL0L
aL11L
aL9L
aL8L
aL7L
aL0L
aL0L
aL0L
aL0L
aL0L
aL0L
aL0L
aL0L
aL0L
aL0L
aL0L
aL0L
aL0L
aL0L
aL0L
aL0L
aL0L
aL0L
aL0L
aL0L
aL0L
aL0L
aL0L
aL0L
aL0L
aL0L
aL0L
aL0L
aL0L
aL0L
aL0L
aL0L
aL0L
aL0L
aL0L
aL0L
aL0L
aL0L
aL0L
aL0L
aL0L
aL0L
aL0L
aL0L
aL0L
aL0L
aL0L
aL0L
aL0L
aL0L
aL0L
aL0L
aL0L
aL0L
aL0L
aL0L
aL0L
aL0L
aL0L
aL0L
aL0L
aL0L
aL0L
aL0L
aL0L
aL0L
aL0L
aL0L
aL0L
aL0L
aF0.0
aF0.0
aL0L
aL0L
aL0L
aL13L
aL10L
aL0L
aL0L
aL0L
aL0L
aL0L
aL11L
aL8L
aL0L
aL0L
aL0L
aL0L
aL0L
aL0L
aL0L
aL0L
aL0L
aL0L
aL0L
aL0L
aL0L
aL0L
aF0.0
aL0L
aF0.0
aL0L
aL8L
aL0L
aL0L
aL0L
aL0L
aL0L
aL0L
aL0L
aL0L
aF0.0
aL0L
aL0L
aL0L
aF0.0
aL0L
aL0L
aL0L
aL0L
aL0L
aF0.0
aL0L
aL13L
aL0L
aL0L
aL0L
aF0.0
aF0.0
aL0L
aF0.0
aL9L
aL0L
aL0L
aL0L
aL0L
aL8L
aL0L
aL10L
aL0L
aL0L
aL0L
aL0L
aF0.0
aF0.0
aF0.0
aL0L
aF0.0
aL0L
aL0L
aL0L
aL0L
aL0L
aL0L
aL0L
aL0L
aL0L
aL0L
aL0L
aL0L
aL0L
aL0L
aF0.0
aF0.0
aL0L
aL0L
aL13L
aL13L
aL7L
aF0.0
aF0.0
aL0L
aL0L
aL9L
aF0.0
aL0L
aL9L
aL0L
aL9L
aF0.0
aL423637L
aL2557L
aL1L
ag14
aL7L
aL0L
aL0L
aL0L
aF0.0
aL0L
aF0.0
aL0L
aL0L
aL0L
aL0L
aL0L
aL0L
aL0L
aL0L
aL0L
aL0L
aL0L
aL0L
aL0L
aL11L
aL12L
aL8L
aL9L
aL0L
aL0L
aL0L
aL0L
aL0L
aL0L
aL0L
aL0L
aL0L
aL0L
aL0L
aL0L
aL0L
aL0L
aL0L
aL0L
aL0L
aL0L
aL0L
aL0L
aL0L
aL0L
aL0L
aL0L
aL0L
aL0L
aL0L
aL0L
aL0L
aL0L
aL0L
aL0L
aL0L
aL0L
aL0L
aL0L
aL0L
aL0L
aL0L
aL0L
aL0L
aL0L
aL0L
aL0L
aL0L
aL0L
aL0L
aL0L
aL0L
aL0L
aL0L
aL0L
aL0L
aL0L
aL0L
aL0L
aL0L
aL0L
aL0L
aL0L
aL0L
aL0L
aL0L
aL0L
aL0L
aL0L
aL0L
aL0L
aL0L
aL0L
aF0.0
aF0.0
aL0L
aL0L
aL3L
aL11L
aL10L
aL0L
aL0L
aL0L
aL0L
aL0L
aL0L
aL0L
aL0L
aL0L
aL0L
aL0L
aL0L
aL0L
aL0L
aL0L
aL0L
aL0L
aL0L
aL0L
aL0L
aL0L
aF0.0
aL0L
aF0.0
aL0L
aL5L
aL0L
aL0L
aL0L
aL0L
aL0L
aL0L
aL0L
aL0L
aF0.0
aL0L
aL0L
aL0L
aF0.0
aL0L
aL0L
aL0L
aL0L
aL11L
aF0.0
aL0L
aL0L
aL0L
aL0L
aL0L
aF0.0
aF0.0
aL0L
aF0.0
aL9L
aL0L
aL0L
aL0L
aL0L
aL0L
aL10L
aL0L
aL11L
aL0L
aL0L
aL0L
aF0.0
aF0.0
aF0.0
aL0L
aF0.0
aL0L
aL0L
aL0L
aL0L
aL0L
aL0L
aL0L
aL0L
aL0L
aL0L
aL0L
aL0L
aL0L
aL0L
aF0.0
aF0.0
aL0L
aL0L
aL12L
aL13L
aL8L
aF0.0
aF0.0
aL0L
aL0L
aL11L
aF0.0
aL0L
aL11L
aL0L
aL9L
aF0.0
aL423638L
aL2557L
aL1L
ag14
aL13L
aL0L
aL5L
aL0L
aF0.0
aL0L
aF0.0
aL0L
aL0L
aL0L
aL0L
aL0L
aL0L
aL0L
aL0L
aL0L
aL0L
aL0L
aL0L
aL0L
aL9L
aL10L
aL10L
aL9L
aL11L
aL0L
aL0L
aL0L
aL0L
aL0L
aL0L
aL0L
aL0L
aL0L
aL0L
aL0L
aL0L
aL0L
aL0L
aL0L
aL0L
aL0L
aL0L
aL0L
aL0L
aL0L
aL0L
aL0L
aL0L
aL0L
aL0L
aL0L
aL0L
aL0L
aL0L
aL0L
aL0L
aL0L
aL0L
aL0L
aL0L
aL0L
aL0L
aL0L
aL0L
aL0L
aL0L
aL0L
aL0L
aL0L
aL0L
aL0L
aL0L
aL0L
aL0L
aL0L
aL0L
aL0L
aL0L
aL0L
aL0L
aL0L
aL0L
aL0L
aL0L
aL0L
aL0L
aL0L
aL0L
aL0L
aL0L
aL0L
aL0L
aL0L
aF0.0
aF0.0
aL0L
aL0L
aL0L
aL11L
aL10L
aL0L
aL0L
aL0L
aL0L
aL0L
aL0L
aL0L
aL0L
aL0L
aL0L
aL0L
aL0L
aL0L
aL0L
aL0L
aL0L
aL0L
aL0L
aL0L
aL0L
aL0L
aF0.0
aL0L
aF0.0
aL0L
aL0L
aL0L
aL0L
aL0L
aL0L
aL0L
aL0L
aL0L
aL0L
aF0.0
aL0L
aL0L
aL0L
aF0.0
aL0L
aL0L
aL0L
aL0L
aL0L
aF0.0
aL0L
aL13L
aL0L
aL0L
aL0L
aF0.0
aF0.0
aL0L
aF0.0
aL9L
aL0L
aL0L
aL0L
aL0L
aL0L
aL5L
aL0L
aL10L
aL0L
aL0L
aL0L
aF0.0
aF0.0
aF0.0
aL0L
aF0.0
aL0L
aL0L
aL0L
aL0L
aL0L
aL0L
aL0L
aL0L
aL0L
aL0L
aL0L
aL0L
aL0L
aL0L
aF0.0
aF0.0
aL0L
aL0L
aL12L
aL12L
aL9L
aF0.0
aF0.0
aL0L
aL0L
aL11L
aF0.0
aL0L
aL11L
aL0L
aL5L
aF0.0
aL423639L
aL2557L
aL1L
ag14
aL8L
aL0L
aL0L
aL0L
aF0.0
aL0L
aF0.0
aL0L
aL0L
aL0L
aL0L
aL0L
aL0L
aL0L
aL0L
aL0L
aL0L
aL0L
aL0L
aL0L
aL9L
aL11L
aL10L
aL7L
aL0L
aL0L
aL0L
aL0L
aL0L
aL0L
aL0L
aL0L
aL0L
aL0L
aL0L
aL0L
aL0L
aL0L
aL0L
aL0L
aL0L
aL0L
aL0L
aL0L
aL0L
aL0L
aL0L
aL0L
aL0L
aL0L
aL0L
aL0L
aL0L
aL0L
aL0L
aL0L
aL0L
aL0L
aL0L
aL0L
aL0L
aL0L
aL0L
aL0L
aL0L
aL0L
aL0L
aL0L
aL0L
aL0L
aL0L
aL0L
aL0L
aL0L
aL0L
aL0L
aL0L
aL0L
aL0L
aL0L
aL0L
aL0L
aL0L
aL0L
aL0L
aL0L
aL0L
aL0L
aL0L
aL0L
aL0L
aL0L
aL0L
aL0L
aF0.0
aF0.0
aL0L
aL0L
aL0L
aL10L
aL9L
aL0L
aL0L
aL0L
aL0L
aL0L
aL0L
aL0L
aL0L
aL0L
aL0L
aL0L
aL0L
aL0L
aL0L
aL0L
aL0L
aL0L
aL0L
aL0L
aL0L
aL0L
aF0.0
aL0L
aF0.0
aL0L
aL5L
aL0L
aL0L
aL0L
aL0L
aL0L
aL0L
aL0L
aL0L
aF0.0
aL0L
aL0L
aL0L
aF0.0
aL0L
aL0L
aL0L
aL0L
aL0L
aF0.0
aL0L
aL0L
aL0L
aL0L
aL0L
aF0.0
aF0.0
aL0L
aF0.0
aL10L
aL0L
aL0L
aL0L
aL0L
aL0L
aL7L
aL0L
aL10L
aL0L
aL0L
aL0L
aF0.0
aF0.0
aF0.0
aL9L
aF0.0
aL0L
aL0L
aL0L
aL0L
aL0L
aL0L
aL0L
aL0L
aL0L
aL0L
aL0L
aL0L
aL0L
aL0L
aF0.0
aF0.0
aL0L
aL0L
aL12L
aL12L
aL7L
aF0.0
aF0.0
aL0L
aL0L
aL9L
aF0.0
aL0L
aL9L
aL0L
aL7L
aF0.0
aL423640L
aL2557L
aL1L
ag14
aL12L
aL0L
aL0L
aL0L
aF0.0
aL0L
aF0.0
aL0L
aL0L
aL0L
aL0L
aL0L
aL0L
aL0L
aL0L
aL0L
aL0L
aL0L
aL0L
aL0L
aL11L
aL11L
aL8L
aL10L
aL0L
aL0L
aL0L
aL0L
aL0L
aL0L
aL0L
aL0L
aL0L
aL0L
aL0L
aL0L
aL0L
aL0L
aL0L
aL0L
aL0L
aL0L
aL0L
aL0L
aL0L
aL0L
aL0L
aL0L
aL0L
aL0L
aL0L
aL0L
aL0L
aL0L
aL0L
aL0L
aL0L
aL0L
aL0L
aL0L
aL0L
aL0L
aL0L
aL0L
aL0L
aL0L
aL0L
aL0L
aL0L
aL0L
aL0L
aL0L
aL0L
aL0L
aL0L
aL0L
aL0L
aL0L
aL0L
aL0L
aL0L
aL0L
aL0L
aL0L
aL0L
aL0L
aL0L
aL0L
aL0L
aL0L
aL0L
aL0L
aL0L
aL0L
aF0.0
aF0.0
aL0L
aL0L
aL0L
aL12L
aL11L
aL0L
aL0L
aL0L
aL0L
aL0L
aL0L
aL0L
aL0L
aL0L
aL0L
aL0L
aL0L
aL0L
aL0L
aL0L
aL0L
aL0L
aL0L
aL0L
aL0L
aL0L
aF0.0
aL0L
aF0.0
aL0L
aL5L
aL0L
aL0L
aL0L
aL0L
aL0L
aL0L
aL0L
aL0L
aF0.0
aL0L
aL0L
aL0L
aF0.0
aL0L
aL0L
aL0L
aL0L
aL0L
aF0.0
aL0L
aL0L
aL0L
aL0L
aL0L
aF0.0
aF0.0
aL0L
aF0.0
aL11L
aL0L
aL0L
aL0L
aL0L
aL11L
aL0L
aL10L
aL0L
aL0L
aL0L
aL0L
aF0.0
aF0.0
aF0.0
aL0L
aF0.0
aL0L
aL0L
aL0L
aL0L
aL0L
aL0L
aL0L
aL0L
aL0L
aL0L
aL0L
aL0L
aL0L
aL0L
aF0.0
aF0.0
aL0L
aL0L
aL13L
aL13L
aL11L
aF0.0
aF0.0
aL0L
aL0L
aL10L
aF0.0
aL0L
aL12L
aL0L
aL12L
aF0.0
aL423641L
aL2557L
aL1L
ag14
aL8L
aL0L
aL0L
aL0L
aF0.0
aL0L
aF0.0
aL0L
aL0L
aL0L
aL0L
aL0L
aL0L
aL0L
aL0L
aL0L
aL0L
aL0L
aL0L
aL0L
aL11L
aL11L
aL8L
aL10L
aL0L
aL0L
aL0L
aL0L
aL0L
aL0L
aL0L
aL0L
aL0L
aL0L
aL0L
aL0L
aL0L
aL0L
aL0L
aL0L
aL0L
aL0L
aL0L
aL0L
aL0L
aL0L
aL0L
aL0L
aL0L
aL0L
aL0L
aL0L
aL0L
aL0L
aL0L
aL0L
aL0L
aL0L
aL0L
aL0L
aL0L
aL0L
aL0L
aL0L
aL0L
aL0L
aL0L
aL0L
aL0L
aL0L
aL0L
aL0L
aL0L
aL0L
aL0L
aL0L
aL0L
aL0L
aL0L
aL0L
aL0L
aL0L
aL0L
aL0L
aL0L
aL0L
aL0L
aL0L
aL0L
aL0L
aL0L
aL0L
aL0L
aL0L
aF0.0
aF0.0
aL0L
aL0L
aL0L
aL9L
aL9L
aL0L
aL0L
aL0L
aL0L
aL0L
aL0L
aL0L
aL0L
aL0L
aL0L
aL0L
aL0L
aL0L
aL0L
aL0L
aL0L
aL0L
aL0L
aL0L
aL0L
aL0L
aF0.0
aL0L
aF0.0
aL0L
aL9L
aL0L
aL0L
aL0L
aL0L
aL0L
aL0L
aL0L
aL0L
aF0.0
aL0L
aL0L
aL0L
aF0.0
aL0L
aL0L
aL0L
aL0L
aL0L
aF0.0
aL0L
aL0L
aL0L
aL0L
aL0L
aF0.0
aF0.0
aL0L
aF0.0
aL10L
aL0L
aL0L
aL0L
aL0L
aL10L
aL0L
aL10L
aL0L
aL0L
aL0L
aL0L
aF0.0
aF0.0
aF0.0
aL9L
aF0.0
aL0L
aL0L
aL0L
aL0L
aL0L
aL0L
aL0L
aL0L
aL0L
aL0L
aL0L
aL0L
aL0L
aL0L
aF0.0
aF0.0
aL0L
aL0L
aL12L
aL13L
aL10L
aF0.0
aF0.0
aL0L
aL0L
aL10L
aF0.0
aL0L
aL10L
aL0L
aL10L
aF0.0
aL423642L
aL2557L
aL1L
ag14
aL13L
aL0L
aL0L
aL0L
aF0.0
aL0L
aF0.0
aL0L
aL0L
aL0L
aL0L
aL0L
aL0L
aL0L
aL0L
aL0L
aL0L
aL0L
aL0L
aL0L
aL12L
aL13L
aL13L
aL13L
aL13L
aL0L
aL0L
aL0L
aL0L
aL0L
aL0L
aL0L
aL0L
aL0L
aL0L
aL0L
aL0L
aL0L
aL0L
aL0L
aL0L
aL0L
aL0L
aL0L
aL0L
aL0L
aL0L
aL0L
aL0L
aL0L
aL0L
aL0L
aL0L
aL0L
aL0L
aL0L
aL0L
aL0L
aL0L
aL0L
aL0L
aL0L
aL0L
aL0L
aL0L
aL0L
aL0L
aL0L
aL0L
aL0L
aL0L
aL0L
aL0L
aL0L
aL0L
aL0L
aL0L
aL0L
aL0L
aL0L
aL0L
aL0L
aL0L
aL0L
aL0L
aL0L
aL0L
aL0L
aL0L
aL0L
aL0L
aL0L
aL0L
aL0L
aF0.0
aF0.0
aL0L
aL0L
aL0L
aL8L
aL9L
aL0L
aL0L
aL0L
aL0L
aL0L
aL0L
aL0L
aL0L
aL0L
aL0L
aL0L
aL0L
aL0L
aL0L
aL0L
aL0L
aL0L
aL0L
aL0L
aL0L
aL0L
aF0.0
aL0L
aF0.0
aL0L
aL13L
aL0L
aL0L
aL0L
aL0L
aL0L
aL0L
aL0L
aL0L
aF0.0
aL0L
aL0L
aL0L
aF0.0
aL0L
aL0L
aL0L
aL0L
aL0L
aF0.0
aL0L
aL0L
aL0L
aL0L
aL0L
aF0.0
aF0.0
aL0L
aF0.0
aL9L
aL0L
aL0L
aL0L
aL0L
aL0L
aL10L
aL0L
aL11L
aL0L
aL0L
aL0L
aF0.0
aF0.0
aF0.0
aL0L
aF0.0
aL0L
aL0L
aL0L
aL0L
aL0L
aL0L
aL0L
aL0L
aL0L
aL0L
aL0L
aL0L
aL0L
aL0L
aF0.0
aF0.0
aL0L
aL0L
aL9L
aL10L
aL9L
aF0.0
aF0.0
aL0L
aL0L
aL10L
aF0.0
aL0L
aL5L
aL0L
aL13L
aF0.0
aL423643L
aL2557L
aL1L
ag14
aL6L
aL0L
aL0L
aL0L
aF0.0
aL0L
aF0.0
aL0L
aL0L
aL0L
aL0L
aL0L
aL0L
aL0L
aL0L
aL0L
aL0L
aL0L
aL0L
aL0L
aL9L
aL9L
aL8L
aL6L
aL0L
aL0L
aL0L
aL0L
aL0L
aL0L
aL0L
aL0L
aL0L
aL0L
aL0L
aL0L
aL0L
aL0L
aL0L
aL0L
aL0L
aL0L
aL0L
aL0L
aL0L
aL0L
aL0L
aL0L
aL0L
aL0L
aL0L
aL0L
aL0L
aL0L
aL0L
aL0L
aL0L
aL0L
aL0L
aL0L
aL0L
aL0L
aL0L
aL0L
aL0L
aL0L
aL0L
aL0L
aL0L
aL0L
aL0L
aL0L
aL0L
aL0L
aL0L
aL0L
aL0L
aL0L
aL0L
aL0L
aL0L
aL0L
aL0L
aL0L
aL0L
aL0L
aL0L
aL0L
aL0L
aL0L
aL0L
aL0L
aL0L
aL0L
aF0.0
aF0.0
aL0L
aL0L
aL0L
aL0L
aL11L
aL0L
aL0L
aL0L
aL0L
aL0L
aL12L
aL0L
aL0L
aL0L
aL0L
aL0L
aL0L
aL0L
aL0L
aL0L
aL0L
aL0L
aL0L
aL0L
aL0L
aL0L
aF0.0
aL0L
aF0.0
aL0L
aL6L
aL0L
aL0L
aL0L
aL0L
aL0L
aL0L
aL0L
aL0L
aF0.0
aL0L
aL0L
aL0L
aF0.0
aL0L
aL0L
aL0L
aL0L
aL0L
aF0.0
aL0L
aL0L
aL0L
aL0L
aL13L
aF0.0
aF0.0
aL0L
aF0.0
aL10L
aL0L
aL0L
aL0L
aL0L
aL7L
aL0L
aL10L
aL0L
aL0L
aL0L
aL0L
aF0.0
aF0.0
aF0.0
aL0L
aF0.0
aL0L
aL0L
aL0L
aL0L
aL0L
aL0L
aL0L
aL0L
aL0L
aL0L
aL0L
aL0L
aL0L
aL0L
aF0.0
aF0.0
aL0L
aL0L
aL12L
aL12L
aL8L
aF0.0
aF0.0
aL0L
aL0L
aL10L
aF0.0
aL0L
aL10L
aL0L
aL5L
aF0.0
aL423644L
aL2557L
aL1L
ag14
aL8L
aL0L
aL5L
aL0L
aF0.0
aL0L
aF0.0
aL0L
aL0L
aL0L
aL0L
aL0L
aL0L
aL0L
aL0L
aL0L
aL0L
aL0L
aL0L
aL0L
aL11L
aL11L
aL7L
aL8L
aL0L
aL0L
aL0L
aL0L
aL0L
aL0L
aL0L
aL0L
aL0L
aL0L
aL0L
aL0L
aL0L
aL0L
aL0L
aL0L
aL0L
aL0L
aL0L
aL0L
aL0L
aL0L
aL0L
aL0L
aL0L
aL0L
aL0L
aL0L
aL0L
aL0L
aL0L
aL0L
aL0L
aL0L
aL0L
aL0L
aL0L
aL0L
aL0L
aL0L
aL0L
aL0L
aL0L
aL0L
aL0L
aL0L
aL0L
aL0L
aL0L
aL0L
aL0L
aL0L
aL0L
aL0L
aL0L
aL0L
aL0L
aL0L
aL0L
aL0L
aL0L
aL0L
aL0L
aL0L
aL0L
aL0L
aL0L
aL0L
aL0L
aL0L
aF0.0
aF0.0
aL0L
aL0L
aL0L
aL10L
aL11L
aL0L
aL0L
aL0L
aL0L
aL0L
aL0L
aL0L
aL0L
aL0L
aL0L
aL0L
aL0L
aL0L
aL0L
aL0L
aL0L
aL0L
aL0L
aL0L
aL0L
aL0L
aF0.0
aL0L
aF0.0
aL0L
aL9L
aL0L
aL0L
aL0L
aL0L
aL0L
aL0L
aL0L
aL0L
aF0.0
aL0L
aL0L
aL0L
aF0.0
aL0L
aL0L
aL0L
aL0L
aL0L
aF0.0
aL0L
aL0L
aL0L
aL0L
aL0L
aF0.0
aF0.0
aL0L
aF0.0
aL8L
aL0L
aL0L
aL0L
aL0L
aL10L
aL0L
aL9L
aL0L
aL0L
aL0L
aL0L
aF0.0
aF0.0
aF0.0
aL0L
aF0.0
aL0L
aL0L
aL0L
aL0L
aL0L
aL0L
aL0L
aL0L
aL0L
aL0L
aL0L
aL0L
aL0L
aL0L
aF0.0
aF0.0
aL0L
aL0L
aL9L
aL12L
aL9L
aF0.0
aF0.0
aL0L
aL0L
aL10L
aF0.0
aL0L
aL10L
aL0L
aL11L
aF0.0
aL423645L
aL2557L
aL1L
ag14
aL9L
aL0L
aL0L
aL0L
aF0.0
aL0L
aF0.0
aL0L
aL0L
aL0L
aL0L
aL0L
aL0L
aL0L
aL0L
aL0L
aL0L
aL0L
aL0L
aL0L
aL11L
aL10L
aL8L
aL10L
aL0L
aL0L
aL0L
aL0L
aL0L
aL0L
aL0L
aL0L
aL0L
aL0L
aL0L
aL0L
aL0L
aL0L
aL0L
aL0L
aL0L
aL0L
aL0L
aL0L
aL0L
aL0L
aL0L
aL0L
aL0L
aL0L
aL0L
aL0L
aL0L
aL0L
aL0L
aL0L
aL0L
aL0L
aL0L
aL0L
aL0L
aL0L
aL0L
aL0L
aL0L
aL0L
aL0L
aL0L
aL0L
aL0L
aL0L
aL0L
aL0L
aL0L
aL0L
aL0L
aL0L
aL0L
aL0L
aL0L
aL0L
aL0L
aL0L
aL0L
aL0L
aL0L
aL0L
aL0L
aL0L
aL0L
aL0L
aL0L
aL0L
aL0L
aF0.0
aF0.0
aL0L
aL0L
aL0L
aL7L
aL9L
aL0L
aL0L
aL0L
aL0L
aL0L
aL0L
aL0L
aL0L
aL0L
aL0L
aL0L
aL0L
aL0L
aL0L
aL0L
aL0L
aL0L
aL0L
aL0L
aL0L
aL0L
aF0.0
aL0L
aF0.0
aL0L
aL8L
aL0L
aL0L
aL0L
aL0L
aL0L
aL0L
aL0L
aL0L
aF0.0
aL0L
aL0L
aL0L
aF0.0
aL0L
aL0L
aL0L
aL0L
aL0L
aF0.0
aL0L
aL0L
aL0L
aL0L
aL0L
aF0.0
aF0.0
aL0L
aF0.0
aL10L
aL0L
aL0L
aL0L
aL0L
aL0L
aL10L
aL0L
aL10L
aL0L
aL0L
aL0L
aF0.0
aF0.0
aF0.0
aL0L
aF0.0
aL0L
aL0L
aL0L
aL0L
aL0L
aL0L
aL0L
aL0L
aL0L
aL0L
aL0L
aL0L
aL0L
aL0L
aF0.0
aF0.0
aL0L
aL0L
aL11L
aL13L
aL11L
aF0.0
aF0.0
aL0L
aL0L
aL10L
aF0.0
aL0L
aL11L
aL0L
aL9L
aF0.0
aL423648L
aL2557L
aL1L
ag14
aL13L
aL0L
aL0L
aL0L
aF0.0
aL0L
aF0.0
aL0L
aL0L
aL0L
aL0L
aL0L
aL0L
aL0L
aL0L
aL0L
aL0L
aL0L
aL0L
aL0L
aL12L
aL13L
aL12L
aL13L
aL13L
aL0L
aL0L
aL0L
aL0L
aL0L
aL0L
aL0L
aL0L
aL0L
aL0L
aL0L
aL0L
aL0L
aL0L
aL0L
aL0L
aL0L
aL0L
aL0L
aL0L
aL0L
aL0L
aL0L
aL0L
aL0L
aL0L
aL0L
aL0L
aL0L
aL0L
aL0L
aL0L
aL0L
aL0L
aL0L
aL0L
aL0L
aL0L
aL0L
aL0L
aL0L
aL0L
aL0L
aL0L
aL0L
aL0L
aL0L
aL0L
aL0L
aL0L
aL0L
aL0L
aL0L
aL0L
aL0L
aL0L
aL0L
aL0L
aL0L
aL0L
aL0L
aL0L
aL0L
aL0L
aL0L
aL0L
aL0L
aL0L
aL0L
aF0.0
aF0.0
aL0L
aL0L
aL0L
aL10L
aL5L
aL0L
aL0L
aL0L
aL0L
aL0L
aL0L
aL0L
aL0L
aL0L
aL0L
aL0L
aL0L
aL0L
aL0L
aL0L
aL0L
aL0L
aL0L
aL0L
aL0L
aL0L
aF0.0
aL0L
aF0.0
aL0L
aL5L
aL0L
aL0L
aL0L
aL0L
aL0L
aL0L
aL0L
aL0L
aF0.0
aL0L
aL0L
aL0L
aF0.0
aL0L
aL0L
aL0L
aL0L
aL0L
aF0.0
aL0L
aL0L
aL0L
aL0L
aL0L
aF0.0
aF0.0
aL0L
aF0.0
aL12L
aL0L
aL0L
aL0L
aL0L
aL13L
aL0L
aL11L
aL0L
aL0L
aL0L
aL0L
aF0.0
aF0.0
aF0.0
aL0L
aF0.0
aL0L
aL0L
aL0L
aL0L
aL0L
aL0L
aL0L
aL0L
aL0L
aL0L
aL0L
aL0L
aL0L
aL0L
aF0.0
aF0.0
aL0L
aL0L
aL11L
aL12L
aL10L
aF0.0
aF0.0
aL0L
aL0L
aL11L
aF0.0
aL0L
aL12L
aL0L
aL11L
aF0.0
aL423649L
aL2557L
aL1L
ag14
aL8L
aL0L
aL0L
aL0L
aF0.0
aL0L
aF0.0
aL0L
aL0L
aL0L
aL0L
aL0L
aL0L
aL0L
aL0L
aL0L
aL0L
aL0L
aL0L
aL0L
aL10L
aL11L
aL8L
aL8L
aL0L
aL0L
aL0L
aL0L
aL0L
aL0L
aL0L
aL0L
aL0L
aL0L
aL0L
aL0L
aL0L
aL0L
aL0L
aL0L
aL0L
aL0L
aL0L
aL0L
aL0L
aL0L
aL0L
aL0L
aL0L
aL0L
aL0L
aL0L
aL0L
aL0L
aL0L
aL0L
aL0L
aL0L
aL0L
aL0L
aL0L
aL0L
aL0L
aL0L
aL0L
aL0L
aL0L
aL0L
aL0L
aL0L
aL0L
aL0L
aL0L
aL0L
aL0L
aL0L
aL0L
aL0L
aL0L
aL0L
aL0L
aL0L
aL0L
aL0L
aL0L
aL0L
aL0L
aL0L
aL0L
aL0L
aL0L
aL0L
aL0L
aL0L
aF0.0
aF0.0
aL0L
aL0L
aL0L
aL0L
aL0L
aL0L
aL0L
aL0L
aL0L
aL0L
aL0L
aL0L
aL0L
aL0L
aL0L
aL0L
aL0L
aL0L
aL0L
aL0L
aL0L
aL0L
aL0L
aL0L
aL0L
aL0L
aF0.0
aL0L
aF0.0
aL0L
aL9L
aL0L
aL0L
aL0L
aL0L
aL0L
aL0L
aL0L
aL0L
aF0.0
aL0L
aL0L
aL0L
aF0.0
aL0L
aL0L
aL0L
aL0L
aL0L
aF0.0
aL0L
aL0L
aL0L
aL0L
aL0L
aF0.0
aF0.0
aL0L
aF0.0
aL0L
aL0L
aL0L
aL0L
aL0L
aL0L
aL10L
aL0L
aL11L
aL0L
aL0L
aL0L
aF0.0
aF0.0
aF0.0
aL0L
aF0.0
aL0L
aL0L
aL0L
aL0L
aL0L
aL0L
aL0L
aL0L
aL0L
aL0L
aL0L
aL0L
aL0L
aL0L
aF0.0
aF0.0
aL0L
aL0L
aL11L
aL12L
aL10L
aF0.0
aF0.0
aL0L
aL0L
aL11L
aF0.0
aL9L
aL0L
aL0L
aL10L
aF0.0
aL424317L
aL2557L
aL1L
ag14
aL6L
aL0L
aL0L
aL0L
aF0.0
aL0L
aF0.0
aL0L
aL0L
aL0L
aL0L
aL0L
aL0L
aL0L
aL0L
aL0L
aL0L
aL0L
aL0L
aL0L
aL11L
aL9L
aL5L
aL8L
aL0L
aL0L
aL0L
aL0L
aL0L
aL0L
aL0L
aL0L
aL0L
aL0L
aL0L
aL0L
aL0L
aL0L
aL0L
aL0L
aL0L
aL0L
aL0L
aL0L
aL0L
aL0L
aL0L
aL0L
aL0L
aL0L
aL0L
aL0L
aL0L
aL0L
aL0L
aL0L
aL0L
aL0L
aL0L
aL0L
aL0L
aL0L
aL0L
aL0L
aL0L
aL0L
aL0L
aL0L
aL0L
aL0L
aL0L
aL0L
aL0L
aL0L
aL0L
aL0L
aL0L
aL0L
aL0L
aL0L
aL0L
aL0L
aL0L
aL0L
aL0L
aL0L
aL0L
aL0L
aL0L
aL0L
aL0L
aL0L
aL0L
aL0L
aF0.0
aF0.0
aL0L
aL0L
aL0L
aL9L
aL9L
aL0L
aL0L
aL0L
aL0L
aL0L
aL0L
aL0L
aL0L
aL0L
aL0L
aL0L
aL0L
aL0L
aL0L
aL0L
aL0L
aL0L
aL0L
aL0L
aL0L
aL0L
aF0.0
aL0L
aF0.0
aL0L
aL9L
aL9L
aL0L
aL0L
aL0L
aL0L
aL0L
aL0L
aL0L
aF0.0
aL0L
aL0L
aL0L
aF0.0
aL0L
aL0L
aL0L
aL0L
aL0L
aF0.0
aL0L
aL0L
aL0L
aL0L
aL0L
aF0.0
aF0.0
aL0L
aF0.0
aL12L
aL0L
aL0L
aL0L
aL0L
aL0L
aL9L
aL0L
aL10L
aL0L
aL0L
aL12L
aF0.0
aF0.0
aF0.0
aL0L
aF0.0
aL0L
aL0L
aL0L
aL0L
aL0L
aL0L
aL0L
aL0L
aL0L
aL0L
aL0L
aL0L
aL0L
aL0L
aF0.0
aF0.0
aL0L
aL0L
aL11L
aL12L
aL0L
aF0.0
aF0.0
aL0L
aL0L
aL13L
aF0.0
aL0L
aL0L
aL0L
aL10L
aF0.0
aL424318L
aL2557L
aL1L
ag14
aL6L
aL0L
aL0L
aL0L
aF0.0
aL0L
aF0.0
aL0L
aL0L
aL0L
aL0L
aL0L
aL0L
aL0L
aL0L
aL0L
aL0L
aL0L
aL0L
aL0L
aL10L
aL9L
aL7L
aL8L
aL0L
aL0L
aL0L
aL0L
aL0L
aL0L
aL0L
aL0L
aL0L
aL0L
aL0L
aL0L
aL0L
aL0L
aL0L
aL0L
aL0L
aL0L
aL0L
aL0L
aL0L
aL0L
aL0L
aL0L
aL0L
aL0L
aL0L
aL0L
aL0L
aL0L
aL0L
aL0L
aL0L
aL0L
aL0L
aL0L
aL0L
aL0L
aL0L
aL0L
aL0L
aL0L
aL0L
aL0L
aL0L
aL0L
aL0L
aL0L
aL0L
aL0L
aL0L
aL0L
aL0L
aL0L
aL0L
aL0L
aL0L
aL0L
aL0L
aL0L
aL0L
aL0L
aL0L
aL0L
aL0L
aL0L
aL0L
aL0L
aL0L
aL0L
aF0.0
aF0.0
aL0L
aL0L
aL0L
aL8L
aL7L
aL0L
aL0L
aL0L
aL0L
aL0L
aL0L
aL0L
aL0L
aL0L
aL0L
aL0L
aL0L
aL0L
aL0L
aL0L
aL0L
aL0L
aL0L
aL0L
aL0L
aL0L
aF0.0
aL0L
aF0.0
aL0L
aL8L
aL0L
aL5L
aL0L
aL0L
aL0L
aL0L
aL0L
aL0L
aF0.0
aL0L
aL0L
aL0L
aF0.0
aL0L
aL0L
aL0L
aL0L
aL0L
aF0.0
aL0L
aL0L
aL0L
aL0L
aL0L
aF0.0
aF0.0
aL0L
aF0.0
aL12L
aL0L
aL0L
aL0L
aL0L
aL0L
aL9L
aL0L
aL9L
aL0L
aL0L
aL11L
aF0.0
aF0.0
aF0.0
aL0L
aF0.0
aL0L
aL0L
aL0L
aL0L
aL0L
aL0L
aL0L
aL0L
aL0L
aL0L
aL0L
aL0L
aL0L
aL0L
aF0.0
aF0.0
aL0L
aL0L
aL11L
aL13L
aL0L
aF0.0
aF0.0
aL0L
aL0L
aL12L
aF0.0
aL0L
aL0L
aL0L
aL5L
aF0.0
aL424319L
aL2557L
aL1L
ag14
aL6L
aL0L
aL0L
aL0L
aF0.0
aL0L
aF0.0
aL0L
aL0L
aL0L
aL0L
aL0L
aL0L
aL0L
aL0L
aL0L
aL0L
aL0L
aL0L
aL0L
aL10L
aL9L
aL9L
aL7L
aL0L
aL0L
aL0L
aL0L
aL0L
aL0L
aL0L
aL0L
aL0L
aL0L
aL0L
aL0L
aL0L
aL0L
aL0L
aL0L
aL0L
aL0L
aL0L
aL0L
aL0L
aL0L
aL0L
aL0L
aL0L
aL0L
aL0L
aL0L
aL0L
aL0L
aL0L
aL0L
aL0L
aL0L
aL0L
aL0L
aL0L
aL0L
aL0L
aL0L
aL0L
aL0L
aL0L
aL0L
aL0L
aL0L
aL0L
aL0L
aL0L
aL0L
aL0L
aL0L
aL0L
aL0L
aL0L
aL0L
aL0L
aL0L
aL0L
aL0L
aL0L
aL0L
aL0L
aL0L
aL0L
aL0L
aL0L
aL0L
aL0L
aL0L
aF0.0
aF0.0
aL0L
aL0L
aL0L
aL13L
aL13L
aL0L
aL0L
aL0L
aL0L
aL0L
aL0L
aL0L
aL0L
aL0L
aL0L
aL0L
aL0L
aL0L
aL0L
aL0L
aL0L
aL0L
aL0L
aL0L
aL0L
aL0L
aF0.0
aL0L
aF0.0
aL0L
aL5L
aL0L
aL0L
aL0L
aL0L
aL0L
aL0L
aL0L
aL0L
aF0.0
aL0L
aL0L
aL0L
aF0.0
aL0L
aL0L
aL0L
aL0L
aL0L
aF0.0
aL0L
aL0L
aL0L
aL0L
aL0L
aF0.0
aF0.0
aL0L
aF0.0
aL12L
aL0L
aL0L
aL0L
aL0L
aL0L
aL6L
aL0L
aL9L
aL0L
aL0L
aL7L
aF0.0
aF0.0
aF0.0
aL0L
aF0.0
aL0L
aL0L
aL0L
aL0L
aL0L
aL0L
aL0L
aL0L
aL0L
aL0L
aL0L
aL0L
aL0L
aL0L
aF0.0
aF0.0
aL0L
aL0L
aL10L
aL12L
aL0L
aF0.0
aF0.0
aL0L
aL0L
aL11L
aF0.0
aL0L
aL0L
aL0L
aL8L
aF0.0
aL424323L
aL2557L
aL1L
ag14
aL6L
aL0L
aL0L
aL0L
aF0.0
aL0L
aF0.0
aL0L
aL0L
aL0L
aL0L
aL0L
aL0L
aL0L
aL0L
aL0L
aL0L
aL0L
aL0L
aL0L
aL9L
aL9L
aL7L
aL7L
aL0L
aL0L
aL0L
aL0L
aL0L
aL0L
aL0L
aL0L
aL0L
aL0L
aL0L
aL0L
aL0L
aL0L
aL0L
aL0L
aL0L
aL0L
aL0L
aL0L
aL0L
aL0L
aL0L
aL0L
aL0L
aL0L
aL0L
aL0L
aL0L
aL0L
aL0L
aL0L
aL0L
aL0L
aL0L
aL0L
aL0L
aL0L
aL0L
aL0L
aL0L
aL0L
aL0L
aL0L
aL0L
aL0L
aL0L
aL0L
aL0L
aL0L
aL0L
aL0L
aL0L
aL0L
aL0L
aL0L
aL0L
aL0L
aL0L
aL0L
aL0L
aL0L
aL0L
aL0L
aL0L
aL0L
aL0L
aL0L
aL0L
aL0L
aF0.0
aF0.0
aL0L
aL0L
aL0L
aL9L
aL7L
aL0L
aL0L
aL0L
aL0L
aL0L
aL0L
aL0L
aL0L
aL0L
aL0L
aL0L
aL0L
aL0L
aL0L
aL0L
aL0L
aL0L
aL0L
aL0L
aL0L
aL0L
aF0.0
aL0L
aF0.0
aL0L
aL8L
aL0L
aL5L
aL0L
aL0L
aL0L
aL0L
aL0L
aL0L
aF0.0
aL0L
aL0L
aL0L
aF0.0
aL0L
aL0L
aL0L
aL0L
aL0L
aF0.0
aL0L
aL0L
aL0L
aL0L
aL0L
aF0.0
aF0.0
aL0L
aF0.0
aL12L
aL0L
aL0L
aL0L
aL0L
aL0L
aL9L
aL0L
aL11L
aL0L
aL0L
aL12L
aF0.0
aF0.0
aF0.0
aL0L
aF0.0
aL0L
aL0L
aL0L
aL0L
aL0L
aL0L
aL0L
aL0L
aL0L
aL0L
aL0L
aL0L
aL0L
aL0L
aF0.0
aF0.0
aL0L
aL0L
aL11L
aL12L
aL0L
aF0.0
aF0.0
aL0L
aL0L
aL13L
aF0.0
aL0L
aL0L
aL0L
aL9L
aF0.0
aL424324L
aL2557L
aL1L
ag14
aL8L
aL0L
aL0L
aL0L
aF0.0
aL0L
aF0.0
aL0L
aL0L
aL0L
aL0L
aL0L
aL0L
aL0L
aL0L
aL0L
aL0L
aL0L
aL0L
aL0L
aL10L
aL9L
aL8L
aL8L
aL0L
aL0L
aL0L
aL0L
aL0L
aL0L
aL0L
aL0L
aL0L
aL0L
aL0L
aL0L
aL0L
aL0L
aL0L
aL0L
aL0L
aL0L
aL0L
aL0L
aL0L
aL0L
aL0L
aL0L
aL0L
aL0L
aL0L
aL0L
aL0L
aL0L
aL0L
aL0L
aL0L
aL0L
aL0L
aL0L
aL0L
aL0L
aL0L
aL0L
aL0L
aL0L
aL0L
aL0L
aL0L
aL0L
aL0L
aL0L
aL0L
aL0L
aL0L
aL0L
aL0L
aL0L
aL0L
aL0L
aL0L
aL0L
aL0L
aL0L
aL0L
aL0L
aL0L
aL0L
aL0L
aL0L
aL0L
aL0L
aL0L
aL0L
aF0.0
aF0.0
aL0L
aL0L
aL3L
aL10L
aL10L
aL0L
aL0L
aL0L
aL0L
aL0L
aL0L
aL0L
aL0L
aL0L
aL0L
aL0L
aL0L
aL0L
aL0L
aL0L
aL0L
aL0L
aL0L
aL0L
aL0L
aL0L
aF0.0
aL0L
aF0.0
aL0L
aL5L
aL0L
aL0L
aL0L
aL0L
aL0L
aL0L
aL0L
aL0L
aF0.0
aL0L
aL0L
aL0L
aF0.0
aL0L
aL0L
aL0L
aL0L
aL0L
aF0.0
aL0L
aL0L
aL0L
aL0L
aL0L
aF0.0
aF0.0
aL0L
aF0.0
aL13L
aL0L
aL0L
aL0L
aL0L
aL0L
aL10L
aL0L
aL10L
aL0L
aL0L
aL0L
aF0.0
aF0.0
aF0.0
aL0L
aF0.0
aL0L
aL0L
aL0L
aL0L
aL0L
aL0L
aL0L
aL0L
aL0L
aL0L
aL0L
aL0L
aL0L
aL0L
aF0.0
aF0.0
aL0L
aL0L
aL11L
aL12L
aL0L
aF0.0
aF0.0
aL0L
aL0L
aL13L
aF0.0
aL0L
aL0L
aL0L
aL8L
aF0.0
aL424326L
aL2557L
aL1L
ag14
aL6L
aL0L
aL0L
aL0L
aF0.0
aL0L
aF0.0
aL0L
aL0L
aL0L
aL0L
aL0L
aL0L
aL0L
aL0L
aL0L
aL0L
aL0L
aL0L
aL0L
aL7L
aL6L
aL7L
aL6L
aL0L
aL0L
aL0L
aL0L
aL0L
aL0L
aL0L
aL0L
aL0L
aL0L
aL0L
aL0L
aL0L
aL0L
aL0L
aL0L
aL0L
aL0L
aL0L
aL0L
aL0L
aL0L
aL0L
aL0L
aL0L
aL0L
aL0L
aL0L
aL0L
aL0L
aL0L
aL0L
aL0L
aL0L
aL0L
aL0L
aL0L
aL0L
aL0L
aL0L
aL0L
aL0L
aL0L
aL0L
aL0L
aL0L
aL0L
aL0L
aL0L
aL0L
aL0L
aL0L
aL0L
aL0L
aL0L
aL0L
aL0L
aL0L
aL0L
aL0L
aL0L
aL0L
aL0L
aL0L
aL0L
aL0L
aL0L
aL0L
aL0L
aL0L
aF0.0
aF0.0
aL0L
aL0L
aL0L
aL0L
aL12L
aL0L
aL0L
aL0L
aL0L
aL0L
aL0L
aL0L
aL0L
aL0L
aL0L
aL0L
aL0L
aL0L
aL0L
aL0L
aL0L
aL0L
aL0L
aL0L
aL0L
aL0L
aF0.0
aL0L
aF0.0
aL0L
aL6L
aL0L
aL6L
aL0L
aL0L
aL0L
aL0L
aL0L
aL0L
aF0.0
aL0L
aL0L
aL0L
aF0.0
aL0L
aL0L
aL0L
aL0L
aL0L
aF0.0
aL0L
aL0L
aL0L
aL0L
aL0L
aF0.0
aF0.0
aL0L
aF0.0
aL11L
aL0L
aL0L
aL0L
aL0L
aL0L
aL7L
aL0L
aL11L
aL0L
aL0L
aL8L
aF0.0
aF0.0
aF0.0
aL0L
aF0.0
aL0L
aL0L
aL0L
aL11L
aL0L
aL0L
aL0L
aL0L
aL0L
aL0L
aL0L
aL0L
aL0L
aL0L
aF0.0
aF0.0
aL0L
aL0L
aL9L
aL11L
aL0L
aF0.0
aF0.0
aL0L
aL0L
aL11L
aF0.0
aL0L
aL0L
aL0L
aL6L
aF0.0
aL424327L
aL2557L
aL1L
ag14
aL13L
aL0L
aL0L
aL0L
aF0.0
aL0L
aF0.0
aL0L
aL0L
aL0L
aL0L
aL0L
aL0L
aL0L
aL0L
aL0L
aL0L
aL0L
aL0L
aL0L
aL11L
aL12L
aL11L
aL13L
aL13L
aL0L
aL0L
aL0L
aL0L
aL0L
aL0L
aL0L
aL0L
aL0L
aL0L
aL0L
aL0L
aL0L
aL0L
aL0L
aL0L
aL0L
aL0L
aL0L
aL0L
aL0L
aL0L
aL0L
aL0L
aL0L
aL0L
aL0L
aL0L
aL0L
aL0L
aL0L
aL0L
aL0L
aL0L
aL0L
aL0L
aL0L
aL0L
aL0L
aL0L
aL0L
aL0L
aL0L
aL0L
aL0L
aL0L
aL0L
aL0L
aL0L
aL0L
aL0L
aL0L
aL0L
aL0L
aL0L
aL0L
aL0L
aL0L
aL0L
aL0L
aL0L
aL0L
aL0L
aL0L
aL0L
aL0L
aL0L
aL0L
aL0L
aF0.0
aF0.0
aL0L
aL0L
aL0L
aL12L
aL13L
aL0L
aL0L
aL0L
aL0L
aL0L
aL0L
aL0L
aL0L
aL0L
aL0L
aL0L
aL0L
aL0L
aL0L
aL0L
aL0L
aL0L
aL0L
aL0L
aL0L
aL0L
aF0.0
aL0L
aF0.0
aL0L
aL5L
aL0L
aL0L
aL0L
aL0L
aL0L
aL0L
aL0L
aL0L
aF0.0
aL0L
aL0L
aL0L
aF0.0
aL0L
aL0L
aL0L
aL0L
aL0L
aF0.0
aL0L
aL0L
aL0L
aL0L
aL0L
aF0.0
aF0.0
aL0L
aF0.0
aL13L
aL0L
aL0L
aL0L
aL0L
aL0L
aL9L
aL0L
aL11L
aL0L
aL0L
aL13L
aF0.0
aF0.0
aF0.0
aL0L
aF0.0
aL0L
aL0L
aL0L
aL0L
aL0L
aL0L
aL0L
aL0L
aL0L
aL0L
aL0L
aL0L
aL0L
aL0L
aF0.0
aF0.0
aL0L
aL0L
aL11L
aL12L
aL0L
aF0.0
aF0.0
aL0L
aL0L
aL12L
aF0.0
aL0L
aL0L
aL0L
aL10L
aF0.0
aL424328L
aL2557L
aL1L
ag14
aL6L
aL0L
aL0L
aL0L
aF0.0
aL0L
aF0.0
aL0L
aL0L
aL0L
aL0L
aL0L
aL0L
aL0L
aL0L
aL0L
aL0L
aL0L
aL0L
aL0L
aL10L
aL9L
aL5L
aL9L
aL0L
aL0L
aL0L
aL0L
aL0L
aL0L
aL0L
aL0L
aL0L
aL0L
aL0L
aL0L
aL0L
aL0L
aL0L
aL0L
aL0L
aL0L
aL0L
aL0L
aL0L
aL0L
aL0L
aL0L
aL0L
aL0L
aL0L
aL0L
aL0L
aL0L
aL0L
aL0L
aL0L
aL0L
aL0L
aL0L
aL0L
aL0L
aL0L
aL0L
aL0L
aL0L
aL0L
aL0L
aL0L
aL0L
aL0L
aL0L
aL0L
aL0L
aL0L
aL0L
aL0L
aL0L
aL0L
aL0L
aL0L
aL0L
aL0L
aL0L
aL0L
aL0L
aL0L
aL0L
aL0L
aL0L
aL0L
aL0L
aL0L
aL0L
aF0.0
aF0.0
aL0L
aL0L
aL0L
aL5L
aL10L
aL0L
aL0L
aL0L
aL0L
aL0L
aL0L
aL0L
aL0L
aL0L
aL0L
aL0L
aL0L
aL0L
aL0L
aL0L
aL0L
aL0L
aL0L
aL0L
aL0L
aL0L
aF0.0
aL0L
aF0.0
aL0L
aL5L
aL0L
aL0L
aL0L
aL0L
aL0L
aL0L
aL0L
aL0L
aF0.0
aL0L
aL0L
aL0L
aF0.0
aL0L
aL0L
aL0L
aL0L
aL0L
aF0.0
aL0L
aL0L
aL0L
aL0L
aL0L
aF0.0
aF0.0
aL0L
aF0.0
aL12L
aL0L
aL0L
aL0L
aL0L
aL0L
aL10L
aL0L
aL10L
aL0L
aL0L
aL0L
aF0.0
aF0.0
aF0.0
aL0L
aF0.0
aL0L
aL0L
aL0L
aL0L
aL0L
aL0L
aL0L
aL0L
aL0L
aL0L
aL0L
aL0L
aL0L
aL0L
aF0.0
aF0.0
aL0L
aL0L
aL11L
aL12L
aL0L
aF0.0
aF0.0
aL0L
aL0L
aL12L
aF0.0
aL0L
aL0L
aL0L
aL5L
aF0.0
aL424330L
aL2557L
aL1L
ag14
aL6L
aL0L
aL0L
aL0L
aF0.0
aL0L
aF0.0
aL0L
aL0L
aL0L
aL0L
aL0L
aL0L
aL0L
aL0L
aL0L
aL0L
aL0L
aL0L
aL0L
aL9L
aL9L
aL9L
aL6L
aL0L
aL0L
aL0L
aL0L
aL0L
aL0L
aL0L
aL0L
aL0L
aL0L
aL0L
aL0L
aL0L
aL0L
aL0L
aL0L
aL0L
aL0L
aL0L
aL0L
aL0L
aL0L
aL0L
aL0L
aL0L
aL0L
aL0L
aL0L
aL0L
aL0L
aL0L
aL0L
aL0L
aL0L
aL0L
aL0L
aL0L
aL0L
aL0L
aL0L
aL0L
aL0L
aL0L
aL0L
aL0L
aL0L
aL0L
aL0L
aL0L
aL0L
aL0L
aL0L
aL0L
aL0L
aL0L
aL0L
aL0L
aL0L
aL0L
aL0L
aL0L
aL0L
aL0L
aL0L
aL0L
aL0L
aL0L
aL0L
aL0L
aL0L
aF0.0
aF0.0
aL0L
aL0L
aL0L
aL10L
aL9L
aL0L
aL0L
aL0L
aL0L
aL0L
aL0L
aL0L
aL0L
aL0L
aL0L
aL0L
aL0L
aL0L
aL0L
aL0L
aL0L
aL0L
aL0L
aL0L
aL0L
aL0L
aF0.0
aL0L
aF0.0
aL0L
aL5L
aL0L
aL0L
aL0L
aL0L
aL0L
aL0L
aL0L
aL0L
aF0.0
aL0L
aL0L
aL0L
aF0.0
aL0L
aL0L
aL0L
aL0L
aL0L
aF0.0
aL0L
aL0L
aL0L
aL0L
aL0L
aF0.0
aF0.0
aL0L
aF0.0
aL12L
aL0L
aL0L
aL0L
aL0L
aL0L
aL6L
aL0L
aL9L
aL0L
aL0L
aL9L
aF0.0
aF0.0
aF0.0
aL0L
aF0.0
aL0L
aL0L
aL0L
aL0L
aL0L
aL0L
aL0L
aL0L
aL0L
aL0L
aL0L
aL0L
aL0L
aL0L
aF0.0
aF0.0
aL0L
aL0L
aL11L
aL13L
aL0L
aF0.0
aF0.0
aL0L
aL0L
aL12L
aF0.0
aL0L
aL0L
aL0L
aL8L
aF0.0
aL424331L
aL2557L
aL1L
ag14
aL6L
aL0L
aL0L
aL0L
aF0.0
aL0L
aF0.0
aL0L
aL0L
aL0L
aL0L
aL0L
aL0L
aL0L
aL0L
aL0L
aL0L
aL0L
aL0L
aL0L
aL10L
aL9L
aL11L
aL6L
aL9L
aL0L
aL0L
aL0L
aL0L
aL0L
aL0L
aL0L
aL0L
aL0L
aL0L
aL0L
aL0L
aL0L
aL0L
aL0L
aL0L
aL0L
aL0L
aL0L
aL0L
aL0L
aL0L
aL0L
aL0L
aL0L
aL0L
aL0L
aL0L
aL0L
aL0L
aL0L
aL0L
aL0L
aL0L
aL0L
aL0L
aL0L
aL0L
aL0L
aL0L
aL0L
aL0L
aL0L
aL0L
aL0L
aL0L
aL0L
aL0L
aL0L
aL0L
aL0L
aL0L
aL0L
aL0L
aL0L
aL0L
aL0L
aL0L
aL0L
aL0L
aL0L
aL0L
aL0L
aL0L
aL0L
aL0L
aL0L
aL0L
aL0L
aF0.0
aF0.0
aL0L
aL0L
aL0L
aL9L
aL7L
aL0L
aL0L
aL0L
aL0L
aL0L
aL0L
aL0L
aL0L
aL0L
aL0L
aL0L
aL0L
aL0L
aL0L
aL0L
aL0L
aL0L
aL0L
aL0L
aL0L
aL0L
aF0.0
aL0L
aF0.0
aL0L
aL6L
aL0L
aL5L
aL0L
aL0L
aL0L
aL0L
aL0L
aL0L
aF0.0
aL0L
aL0L
aL0L
aF0.0
aL0L
aL0L
aL0L
aL0L
aL0L
aF0.0
aL0L
aL0L
aL0L
aL0L
aL0L
aF0.0
aF0.0
aL0L
aF0.0
aL12L
aL0L
aL0L
aL0L
aL0L
aL0L
aL6L
aL0L
aL8L
aL0L
aL0L
aL8L
aF0.0
aF0.0
aF0.0
aL0L
aF0.0
aL0L
aL0L
aL0L
aL12L
aL0L
aL0L
aL0L
aL0L
aL0L
aL0L
aL0L
aL0L
aL0L
aL0L
aF0.0
aF0.0
aL0L
aL0L
aL12L
aL13L
aL0L
aF0.0
aF0.0
aL0L
aL0L
aL11L
aF0.0
aL0L
aL0L
aL0L
aL5L
aF0.0
aL424332L
aL2557L
aL1L
ag14
aL7L
aL0L
aL0L
aL0L
aF0.0
aL0L
aF0.0
aL0L
aL0L
aL0L
aL0L
aL0L
aL0L
aL0L
aL0L
aL0L
aL0L
aL0L
aL0L
aL0L
aL11L
aL10L
aL11L
aL6L
aL0L
aL0L
aL0L
aL0L
aL0L
aL0L
aL0L
aL0L
aL0L
aL0L
aL0L
aL0L
aL0L
aL0L
aL0L
aL0L
aL0L
aL0L
aL0L
aL0L
aL0L
aL0L
aL0L
aL0L
aL0L
aL0L
aL0L
aL0L
aL0L
aL0L
aL0L
aL0L
aL0L
aL0L
aL0L
aL0L
aL0L
aL0L
aL0L
aL0L
aL0L
aL0L
aL0L
aL0L
aL0L
aL0L
aL0L
aL0L
aL0L
aL0L
aL0L
aL0L
aL0L
aL0L
aL0L
aL0L
aL0L
aL0L
aL0L
aL0L
aL0L
aL0L
aL0L
aL0L
aL0L
aL0L
aL0L
aL0L
aL0L
aL0L
aF0.0
aF0.0
aL0L
aL0L
aL0L
aL10L
aL9L
aL0L
aL0L
aL0L
aL0L
aL0L
aL0L
aL0L
aL0L
aL0L
aL0L
aL0L
aL0L
aL0L
aL0L
aL0L
aL0L
aL0L
aL0L
aL0L
aL0L
aL0L
aF0.0
aL0L
aF0.0
aL0L
aL5L
aL0L
aL0L
aL0L
aL0L
aL0L
aL0L
aL0L
aL0L
aF0.0
aL0L
aL0L
aL0L
aF0.0
aL0L
aL0L
aL0L
aL0L
aL0L
aF0.0
aL0L
aL0L
aL0L
aL0L
aL0L
aF0.0
aF0.0
aL0L
aF0.0
aL13L
aL0L
aL0L
aL0L
aL0L
aL0L
aL8L
aL0L
aL10L
aL0L
aL0L
aL10L
aF0.0
aF0.0
aF0.0
aL0L
aF0.0
aL0L
aL0L
aL0L
aL0L
aL0L
aL0L
aL0L
aL0L
aL0L
aL0L
aL0L
aL0L
aL0L
aL0L
aF0.0
aF0.0
aL0L
aL0L
aL12L
aL12L
aL0L
aF0.0
aF0.0
aL0L
aL0L
aL12L
aF0.0
aL0L
aL0L
aL0L
aL9L
aF0.0
aL424333L
aL2557L
aL1L
ag14
aL6L
aL0L
aL0L
aL0L
aF0.0
aL0L
aF0.0
aL0L
aL0L
aL0L
aL0L
aL0L
aL0L
aL0L
aL0L
aL0L
aL0L
aL0L
aL0L
aL0L
aL11L
aL11L
aL9L
aL6L
aL0L
aL0L
aL0L
aL0L
aL0L
aL0L
aL0L
aL0L
aL0L
aL0L
aL0L
aL0L
aL0L
aL0L
aL0L
aL0L
aL0L
aL0L
aL0L
aL0L
aL0L
aL0L
aL0L
aL0L
aL0L
aL0L
aL0L
aL0L
aL0L
aL0L
aL0L
aL0L
aL0L
aL0L
aL0L
aL0L
aL0L
aL0L
aL0L
aL0L
aL0L
aL0L
aL0L
aL0L
aL0L
aL0L
aL0L
aL0L
aL0L
aL0L
aL0L
aL0L
aL0L
aL0L
aL0L
aL0L
aL0L
aL0L
aL0L
aL0L
aL0L
aL0L
aL0L
aL0L
aL0L
aL0L
aL0L
aL0L
aL0L
aL0L
aF0.0
aF0.0
aL0L
aL0L
aL0L
aL11L
aL11L
aL0L
aL0L
aL0L
aL0L
aL0L
aL0L
aL0L
aL0L
aL0L
aL0L
aL0L
aL0L
aL0L
aL0L
aL0L
aL0L
aL0L
aL0L
aL0L
aL0L
aL0L
aF0.0
aL0L
aF0.0
aL0L
aL5L
aL0L
aL0L
aL0L
aL0L
aL0L
aL0L
aL0L
aL0L
aF0.0
aL0L
aL0L
aL0L
aF0.0
aL0L
aL0L
aL0L
aL0L
aL0L
aF0.0
aL0L
aL0L
aL0L
aL0L
aL0L
aF0.0
aF0.0
aL0L
aF0.0
aL12L
aL0L
aL0L
aL0L
aL0L
aL0L
aL5L
aL0L
aL9L
aL0L
aL0L
aL8L
aF0.0
aF0.0
aF0.0
aL0L
aF0.0
aL0L
aL0L
aL0L
aL0L
aL0L
aL0L
aL0L
aL0L
aL0L
aL0L
aL0L
aL0L
aL0L
aL0L
aF0.0
aF0.0
aL0L
aL0L
aL12L
aL12L
aL0L
aF0.0
aF0.0
aL0L
aL0L
aL11L
aF0.0
aL0L
aL0L
aL0L
aL9L
aF0.0
aL424334L
aL2557L
aL1L
ag14
aL8L
aL0L
aL0L
aL0L
aF0.0
aL0L
aF0.0
aL0L
aL0L
aL0L
aL0L
aL0L
aL0L
aL0L
aL0L
aL0L
aL0L
aL0L
aL0L
aL0L
aL10L
aL11L
aL10L
aL10L
aL0L
aL0L
aL0L
aL0L
aL0L
aL0L
aL0L
aL0L
aL0L
aL0L
aL0L
aL0L
aL0L
aL0L
aL0L
aL0L
aL0L
aL0L
aL0L
aL0L
aL0L
aL0L
aL0L
aL0L
aL0L
aL0L
aL0L
aL0L
aL0L
aL0L
aL0L
aL0L
aL0L
aL0L
aL0L
aL0L
aL0L
aL0L
aL0L
aL0L
aL0L
aL0L
aL0L
aL0L
aL0L
aL0L
aL0L
aL0L
aL0L
aL0L
aL0L
aL0L
aL0L
aL0L
aL0L
aL0L
aL0L
aL0L
aL0L
aL0L
aL0L
aL0L
aL0L
aL0L
aL0L
aL0L
aL0L
aL0L
aL0L
aL0L
aF0.0
aF0.0
aL0L
aL0L
aL3L
aL10L
aL11L
aL0L
aL0L
aL0L
aL0L
aL0L
aL0L
aL0L
aL0L
aL0L
aL0L
aL0L
aL0L
aL0L
aL0L
aL0L
aL0L
aL0L
aL0L
aL0L
aL0L
aL0L
aF0.0
aL0L
aF0.0
aL0L
aL0L
aL0L
aL9L
aL13L
aL0L
aL0L
aL0L
aL0L
aL0L
aF0.0
aL0L
aL0L
aL0L
aF0.0
aL0L
aL0L
aL0L
aL0L
aL0L
aF0.0
aL0L
aL0L
aL0L
aL0L
aL0L
aF0.0
aF0.0
aL0L
aF0.0
aL13L
aL0L
aL0L
aL0L
aL0L
aL0L
aL10L
aL0L
aL11L
aL0L
aL0L
aL13L
aF0.0
aF0.0
aF0.0
aL0L
aF0.0
aL0L
aL0L
aL0L
aL0L
aL0L
aL0L
aL0L
aL0L
aL0L
aL0L
aL0L
aL0L
aL0L
aL0L
aF0.0
aF0.0
aL0L
aL0L
aL12L
aL12L
aL0L
aF0.0
aF0.0
aL0L
aL0L
aL12L
aF0.0
aL0L
aL0L
aL0L
aL10L
aF0.0
aL427160L
aL2557L
aL1L
ag14
aL6L
aL0L
aL0L
aL0L
aF0.0
aL0L
aF0.0
aL0L
aL0L
aL0L
aL0L
aL0L
aL0L
aL0L
aL0L
aL0L
aL0L
aL0L
aL0L
aL0L
aL10L
aL9L
aL8L
aL6L
aL0L
aL0L
aL0L
aL0L
aL0L
aL0L
aL0L
aL0L
aL0L
aL0L
aL0L
aL0L
aL0L
aL0L
aL0L
aL0L
aL0L
aL0L
aL0L
aL0L
aL0L
aL0L
aL0L
aL0L
aL0L
aL0L
aL0L
aL0L
aL0L
aL0L
aL0L
aL0L
aL0L
aL0L
aL0L
aL0L
aL0L
aL0L
aL0L
aL0L
aL0L
aL0L
aL0L
aL0L
aL0L
aL0L
aL0L
aL0L
aL0L
aL0L
aL0L
aL0L
aL0L
aL0L
aL0L
aL0L
aL0L
aL0L
aL0L
aL0L
aL0L
aL0L
aL0L
aL0L
aL0L
aL0L
aL0L
aL0L
aL0L
aL0L
aF0.0
aF0.0
aL0L
aL0L
aL3L
aL9L
aL7L
aL0L
aL0L
aL0L
aL0L
aL0L
aL0L
aL0L
aL0L
aL0L
aL0L
aL0L
aL0L
aL0L
aL0L
aL0L
aL0L
aL0L
aL0L
aL0L
aL0L
aL0L
aF0.0
aL0L
aF0.0
aL0L
aL11L
aL12L
aL0L
aL0L
aL0L
aL0L
aL0L
aL0L
aL0L
aF0.0
aL0L
aL0L
aL0L
aF0.0
aL0L
aL0L
aL0L
aL0L
aL0L
aF0.0
aL0L
aL0L
aL0L
aL0L
aL0L
aF0.0
aF0.0
aL0L
aF0.0
aL6L
aL0L
aL0L
aL0L
aL0L
aL0L
aL5L
aL0L
aL10L
aL0L
aL0L
aL6L
aF0.0
aF0.0
aF0.0
aL0L
aF0.0
aL0L
aL0L
aL0L
aL0L
aL0L
aL0L
aL0L
aL0L
aL0L
aL0L
aL0L
aL0L
aL0L
aL0L
aF0.0
aF0.0
aL0L
aL0L
aL9L
aL5L
aL0L
aF0.0
aF0.0
aL0L
aL0L
aL7L
aF0.0
aL0L
aL0L
aL0L
aL9L
aF0.0
aL427161L
aL2557L
aL1L
ag14
aL6L
aL0L
aL0L
aL0L
aF0.0
aL0L
aF0.0
aL0L
aL0L
aL0L
aL0L
aL0L
aL0L
aL0L
aL0L
aL0L
aL0L
aL0L
aL0L
aL0L
aL10L
aL9L
aL7L
aL7L
aL0L
aL0L
aL0L
aL0L
aL0L
aL0L
aL0L
aL0L
aL0L
aL0L
aL0L
aL0L
aL0L
aL0L
aL0L
aL0L
aL0L
aL0L
aL0L
aL0L
aL0L
aL0L
aL0L
aL0L
aL0L
aL0L
aL0L
aL0L
aL0L
aL0L
aL0L
aL0L
aL0L
aL0L
aL0L
aL0L
aL0L
aL0L
aL0L
aL0L
aL0L
aL0L
aL0L
aL0L
aL0L
aL0L
aL0L
aL0L
aL0L
aL0L
aL0L
aL0L
aL0L
aL0L
aL0L
aL0L
aL0L
aL0L
aL0L
aL0L
aL0L
aL0L
aL0L
aL0L
aL0L
aL0L
aL0L
aL0L
aL0L
aL0L
aF0.0
aF0.0
aL0L
aL0L
aL0L
aL11L
aL11L
aL0L
aL0L
aL0L
aL0L
aL0L
aL0L
aL0L
aL0L
aL0L
aL0L
aL0L
aL0L
aL0L
aL0L
aL0L
aL0L
aL0L
aL0L
aL0L
aL0L
aL0L
aF0.0
aL0L
aF0.0
aL0L
aL8L
aL0L
aL5L
aL0L
aL0L
aL0L
aL0L
aL0L
aL0L
aF0.0
aL0L
aL0L
aL0L
aF0.0
aL0L
aL0L
aL0L
aL0L
aL0L
aF0.0
aL0L
aL0L
aL0L
aL0L
aL0L
aF0.0
aF0.0
aL0L
aF0.0
aL12L
aL0L
aL0L
aL0L
aL0L
aL0L
aL11L
aL0L
aL10L
aL0L
aL0L
aL9L
aF0.0
aF0.0
aF0.0
aL0L
aF0.0
aL0L
aL0L
aL0L
aL0L
aL0L
aL0L
aL0L
aL0L
aL0L
aL0L
aL0L
aL0L
aL0L
aL0L
aF0.0
aF0.0
aL0L
aL0L
aL10L
aL12L
aL0L
aF0.0
aF0.0
aL0L
aL0L
aL12L
aF0.0
aL0L
aL0L
aL0L
aL9L
aF0.0
aL427162L
aL2557L
aL1L
ag14
aL6L
aL0L
aL0L
aL0L
aF0.0
aL0L
aF0.0
aL0L
aL0L
aL0L
aL0L
aL0L
aL0L
aL0L
aL0L
aL0L
aL0L
aL0L
aL0L
aL0L
aL9L
aL9L
aL8L
aL7L
aL5L
aL0L
aL0L
aL0L
aL0L
aL0L
aL0L
aL0L
aL0L
aL0L
aL0L
aL0L
aL0L
aL0L
aL0L
aL0L
aL0L
aL0L
aL0L
aL0L
aL0L
aL0L
aL0L
aL0L
aL0L
aL0L
aL0L
aL0L
aL0L
aL0L
aL0L
aL0L
aL0L
aL0L
aL0L
aL0L
aL0L
aL0L
aL0L
aL0L
aL0L
aL0L
aL0L
aL0L
aL0L
aL0L
aL0L
aL0L
aL0L
aL0L
aL0L
aL0L
aL0L
aL0L
aL0L
aL0L
aL0L
aL0L
aL0L
aL0L
aL0L
aL0L
aL0L
aL0L
aL0L
aL0L
aL0L
aL0L
aL0L
aL0L
aF0.0
aF0.0
aL0L
aL0L
aL3L
aL9L
aL9L
aL0L
aL0L
aL0L
aL0L
aL0L
aL0L
aL0L
aL0L
aL0L
aL0L
aL0L
aL0L
aL0L
aL0L
aL0L
aL0L
aL0L
aL0L
aL0L
aL0L
aL0L
aF0.0
aL0L
aF0.0
aL0L
aL10L
aL5L
aL0L
aL0L
aL0L
aL0L
aL0L
aL0L
aL0L
aF0.0
aL0L
aL0L
aL0L
aF0.0
aL0L
aL0L
aL0L
aL0L
aL0L
aF0.0
aL0L
aL0L
aL0L
aL0L
aL0L
aF0.0
aF0.0
aL0L
aF0.0
aL12L
aL0L
aL0L
aL0L
aL0L
aL0L
aL9L
aL0L
aL8L
aL0L
aL0L
aL9L
aF0.0
aF0.0
aF0.0
aL0L
aF0.0
aL0L
aL0L
aL0L
aL0L
aL0L
aL0L
aL0L
aL0L
aL0L
aL0L
aL0L
aL0L
aL0L
aL0L
aF0.0
aF0.0
aL0L
aL0L
aL8L
aL5L
aL0L
aF0.0
aF0.0
aL0L
aL0L
aL10L
aF0.0
aL0L
aL0L
aL0L
aL5L
aF0.0
aL427164L
aL2557L
aL1L
ag14
aL5L
aL0L
aL0L
aL0L
aF0.0
aL0L
aF0.0
aL0L
aL0L
aL0L
aL0L
aL0L
aL0L
aL0L
aL0L
aL0L
aL0L
aL0L
aL0L
aL0L
aL9L
aL8L
aL7L
aL6L
aL0L
aL0L
aL0L
aL0L
aL0L
aL0L
aL0L
aL0L
aL0L
aL0L
aL0L
aL0L
aL0L
aL0L
aL0L
aL0L
aL0L
aL0L
aL0L
aL0L
aL0L
aL0L
aL0L
aL0L
aL0L
aL0L
aL0L
aL0L
aL0L
aL0L
aL0L
aL0L
aL0L
aL0L
aL0L
aL0L
aL0L
aL0L
aL0L
aL0L
aL0L
aL0L
aL0L
aL0L
aL0L
aL0L
aL0L
aL0L
aL0L
aL0L
aL0L
aL0L
aL0L
aL0L
aL0L
aL0L
aL0L
aL0L
aL0L
aL0L
aL0L
aL0L
aL0L
aL0L
aL0L
aL0L
aL0L
aL0L
aL0L
aL0L
aF0.0
aF0.0
aL0L
aL0L
aL3L
aL7L
aL7L
aL0L
aL0L
aL0L
aL0L
aL0L
aL0L
aL0L
aL0L
aL0L
aL0L
aL0L
aL0L
aL0L
aL0L
aL0L
aL0L
aL0L
aL0L
aL0L
aL0L
aL0L
aF0.0
aL0L
aF0.0
aL0L
aL5L
aL0L
aL0L
aL0L
aL0L
aL0L
aL0L
aL0L
aL0L
aF0.0
aL0L
aL0L
aL0L
aF0.0
aL0L
aL0L
aL0L
aL0L
aL0L
aF0.0
aL0L
aL0L
aL0L
aL0L
aL0L
aF0.0
aF0.0
aL0L
aF0.0
aL11L
aL0L
aL0L
aL0L
aL0L
aL0L
aL5L
aL0L
aL7L
aL0L
aL0L
aL7L
aF0.0
aF0.0
aF0.0
aL0L
aF0.0
aL0L
aL0L
aL0L
aL0L
aL0L
aL0L
aL0L
aL0L
aL0L
aL0L
aL0L
aL0L
aL0L
aL0L
aF0.0
aF0.0
aL0L
aL0L
aL8L
aL12L
aL0L
aF0.0
aF0.0
aL0L
aL0L
aL11L
aF0.0
aL0L
aL0L
aL0L
aL5L
aF0.0
aL427166L
aL2557L
aL1L
ag14
aL7L
aL0L
aL0L
aL0L
aF0.0
aL0L
aF0.0
aL0L
aL0L
aL0L
aL0L
aL0L
aL0L
aL0L
aL0L
aL0L
aL0L
aL0L
aL0L
aL0L
aL11L
aL11L
aL0L
aL9L
aL0L
aL0L
aL0L
aL0L
aL0L
aL0L
aL0L
aL0L
aL0L
aL0L
aL0L
aL0L
aL0L
aL0L
aL0L
aL0L
aL0L
aL0L
aL0L
aL0L
aL0L
aL0L
aL0L
aL0L
aL0L
aL0L
aL0L
aL0L
aL0L
aL0L
aL0L
aL0L
aL0L
aL0L
aL0L
aL0L
aL0L
aL0L
aL0L
aL0L
aL0L
aL0L
aL0L
aL0L
aL0L
aL0L
aL0L
aL0L
aL0L
aL0L
aL0L
aL0L
aL0L
aL0L
aL0L
aL0L
aL0L
aL0L
aL0L
aL0L
aL0L
aL0L
aL0L
aL0L
aL0L
aL0L
aL0L
aL0L
aL0L
aL0L
aF0.0
aF0.0
aL0L
aL0L
aL0L
aL0L
aL12L
aL0L
aL0L
aL0L
aL0L
aL0L
aL0L
aL0L
aL0L
aL0L
aL0L
aL0L
aL0L
aL0L
aL0L
aL0L
aL0L
aL0L
aL0L
aL0L
aL0L
aL0L
aF0.0
aL0L
aF0.0
aL0L
aL0L
aL0L
aL10L
aL13L
aL0L
aL0L
aL0L
aL0L
aL0L
aF0.0
aL0L
aL0L
aL0L
aF0.0
aL0L
aL0L
aL0L
aL0L
aL0L
aF0.0
aL0L
aL0L
aL0L
aL0L
aL0L
aF0.0
aF0.0
aL0L
aF0.0
aL6L
aL0L
aL0L
aL0L
aL0L
aL0L
aL12L
aL0L
aL13L
aL0L
aL0L
aL9L
aF0.0
aF0.0
aF0.0
aL0L
aF0.0
aL0L
aL0L
aL0L
aL0L
aL0L
aL0L
aL0L
aL0L
aL0L
aL0L
aL0L
aL0L
aL0L
aL0L
aF0.0
aF0.0
aL0L
aL0L
aL0L
aL11L
aL0L
aF0.0
aF0.0
aL0L
aL0L
aL10L
aF0.0
aL0L
aL0L
aL0L
aL10L
aF0.0
aL427169L
aL2557L
aL1L
ag14
aL6L
aL0L
aL0L
aL0L
aF0.0
aL0L
aF0.0
aL0L
aL0L
aL0L
aL0L
aL0L
aL0L
aL0L
aL0L
aL0L
aL0L
aL0L
aL0L
aL0L
aL10L
aL9L
aL7L
aL6L
aL0L
aL0L
aL0L
aL0L
aL0L
aL0L
aL0L
aL0L
aL0L
aL0L
aL0L
aL0L
aL0L
aL0L
aL0L
aL0L
aL0L
aL0L
aL0L
aL0L
aL0L
aL0L
aL0L
aL0L
aL0L
aL0L
aL0L
aL0L
aL0L
aL0L
aL0L
aL0L
aL0L
aL0L
aL0L
aL0L
aL0L
aL0L
aL0L
aL0L
aL0L
aL0L
aL0L
aL0L
aL0L
aL0L
aL0L
aL0L
aL0L
aL0L
aL0L
aL0L
aL0L
aL0L
aL0L
aL0L
aL0L
aL0L
aL0L
aL0L
aL0L
aL0L
aL0L
aL0L
aL0L
aL0L
aL0L
aL0L
aL0L
aL0L
aF0.0
aF0.0
aL0L
aL0L
aL3L
aL9L
aL0L
aL0L
aL0L
aL0L
aL0L
aL0L
aL0L
aL0L
aL0L
aL0L
aL0L
aL0L
aL0L
aL0L
aL0L
aL0L
aL0L
aL0L
aL0L
aL0L
aL0L
aL0L
aF0.0
aL0L
aF0.0
aL0L
aL9L
aL0L
aL5L
aL0L
aL0L
aL0L
aL0L
aL0L
aL0L
aF0.0
aL0L
aL0L
aL0L
aF0.0
aL0L
aL0L
aL0L
aL0L
aL0L
aF0.0
aL0L
aL0L
aL0L
aL0L
aL0L
aF0.0
aF0.0
aL0L
aF0.0
aL10L
aL0L
aL0L
aL0L
aL0L
aL0L
aL9L
aL0L
aL11L
aL0L
aL0L
aL8L
aF0.0
aF0.0
aF0.0
aL0L
aF0.0
aL0L
aL0L
aL0L
aL10L
aL0L
aL0L
aL0L
aL0L
aL0L
aL0L
aL0L
aL0L
aL0L
aL0L
aF0.0
aF0.0
aL0L
aL0L
aL10L
aL11L
aL0L
aF0.0
aF0.0
aL0L
aL0L
aL9L
aF0.0
aL0L
aL0L
aL0L
aL8L
aF0.0
aL427173L
aL2557L
aL1L
ag14
aL11L
aL0L
aL0L
aL0L
aF0.0
aL0L
aF0.0
aL0L
aL0L
aL0L
aL0L
aL0L
aL0L
aL0L
aL0L
aL0L
aL0L
aL0L
aL0L
aL0L
aL11L
aL11L
aL9L
aL10L
aL13L
aL0L
aL0L
aL0L
aL0L
aL0L
aL0L
aL0L
aL0L
aL0L
aL0L
aL0L
aL0L
aL0L
aL0L
aL0L
aL0L
aL0L
aL0L
aL0L
aL0L
aL0L
aL0L
aL0L
aL0L
aL0L
aL0L
aL0L
aL0L
aL0L
aL0L
aL0L
aL0L
aL0L
aL0L
aL0L
aL0L
aL0L
aL0L
aL0L
aL0L
aL0L
aL0L
aL0L
aL0L
aL0L
aL0L
aL0L
aL0L
aL0L
aL0L
aL0L
aL0L
aL0L
aL0L
aL0L
aL0L
aL0L
aL0L
aL0L
aL0L
aL0L
aL0L
aL0L
aL0L
aL0L
aL0L
aL0L
aL0L
aL0L
aF0.0
aF0.0
aL0L
aL0L
aL3L
aL8L
aL9L
aL0L
aL0L
aL0L
aL0L
aL0L
aL0L
aL0L
aL0L
aL0L
aL0L
aL0L
aL0L
aL0L
aL0L
aL0L
aL0L
aL0L
aL0L
aL0L
aL0L
aL0L
aF0.0
aL0L
aF0.0
aL0L
aL0L
aL0L
aL5L
aL0L
aL0L
aL0L
aL0L
aL0L
aL0L
aF0.0
aL0L
aL0L
aL0L
aF0.0
aL0L
aL0L
aL0L
aL0L
aL0L
aF0.0
aL0L
aL0L
aL0L
aL0L
aL0L
aF0.0
aF0.0
aL0L
aF0.0
aL13L
aL0L
aL0L
aL0L
aL0L
aL0L
aL11L
aL0L
aL10L
aL0L
aL0L
aL13L
aF0.0
aF0.0
aF0.0
aL0L
aF0.0
aL0L
aL0L
aL0L
aL0L
aL0L
aL0L
aL0L
aL0L
aL0L
aL0L
aL0L
aL0L
aL0L
aL0L
aF0.0
aF0.0
aL0L
aL0L
aL13L
aL12L
aL0L
aF0.0
aF0.0
aL0L
aL0L
aL11L
aF0.0
aL0L
aL0L
aL0L
aL9L
aF0.0
aL427174L
aL2557L
aL1L
ag14
aL6L
aL0L
aL0L
aL0L
aF0.0
aL0L
aF0.0
aL0L
aL0L
aL0L
aL0L
aL0L
aL0L
aL0L
aL0L
aL0L
aL0L
aL0L
aL0L
aL0L
aL9L
aL7L
aL5L
aL6L
aL0L
aL0L
aL0L
aL0L
aL0L
aL0L
aL0L
aL0L
aL0L
aL0L
aL0L
aL0L
aL0L
aL0L
aL0L
aL0L
aL0L
aL0L
aL0L
aL0L
aL0L
aL0L
aL0L
aL0L
aL0L
aL0L
aL0L
aL0L
aL0L
aL0L
aL0L
aL0L
aL0L
aL0L
aL0L
aL0L
aL0L
aL0L
aL0L
aL0L
aL0L
aL0L
aL0L
aL0L
aL0L
aL0L
aL0L
aL0L
aL0L
aL0L
aL0L
aL0L
aL0L
aL0L
aL0L
aL0L
aL0L
aL0L
aL0L
aL0L
aL0L
aL0L
aL0L
aL0L
aL0L
aL0L
aL0L
aL0L
aL0L
aL0L
aF0.0
aF0.0
aL0L
aL0L
aL3L
aL8L
aL9L
aL0L
aL0L
aL0L
aL0L
aL0L
aL0L
aL0L
aL0L
aL0L
aL0L
aL0L
aL0L
aL0L
aL0L
aL0L
aL0L
aL0L
aL0L
aL0L
aL0L
aL0L
aF0.0
aL0L
aF0.0
aL0L
aL5L
aL0L
aL0L
aL0L
aL0L
aL0L
aL0L
aL0L
aL0L
aF0.0
aL0L
aL0L
aL0L
aF0.0
aL0L
aL0L
aL0L
aL0L
aL0L
aF0.0
aL0L
aL0L
aL0L
aL0L
aL0L
aF0.0
aF0.0
aL0L
aF0.0
aL11L
aL0L
aL0L
aL0L
aL0L
aL0L
aL7L
aL0L
aL10L
aL0L
aL0L
aL7L
aF0.0
aF0.0
aF0.0
aL0L
aF0.0
aL0L
aL0L
aL0L
aL0L
aL0L
aL0L
aL0L
aL0L
aL0L
aL0L
aL0L
aL0L
aL0L
aL0L
aF0.0
aF0.0
aL0L
aL0L
aL10L
aL10L
aL0L
aF0.0
aF0.0
aL0L
aL0L
aL11L
aF0.0
aL0L
aL0L
aL0L
aL5L
aF0.0
aL427177L
aL2557L
aL1L
ag14
aL6L
aL0L
aL0L
aL0L
aF0.0
aL0L
aF0.0
aL0L
aL0L
aL0L
aL0L
aL0L
aL0L
aL0L
aL0L
aL0L
aL0L
aL0L
aL0L
aL0L
aL9L
aL9L
aL8L
aL7L
aL0L
aL0L
aL0L
aL0L
aL0L
aL0L
aL0L
aL0L
aL0L
aL0L
aL0L
aL0L
aL0L
aL0L
aL0L
aL0L
aL0L
aL0L
aL0L
aL0L
aL0L
aL0L
aL0L
aL0L
aL0L
aL0L
aL0L
aL0L
aL0L
aL0L
aL0L
aL0L
aL0L
aL0L
aL0L
aL0L
aL0L
aL0L
aL0L
aL0L
aL0L
aL0L
aL0L
aL0L
aL0L
aL0L
aL0L
aL0L
aL0L
aL0L
aL0L
aL0L
aL0L
aL0L
aL0L
aL0L
aL0L
aL0L
aL0L
aL0L
aL0L
aL0L
aL0L
aL0L
aL0L
aL0L
aL0L
aL0L
aL0L
aL0L
aF0.0
aF0.0
aL0L
aL0L
aL3L
aL8L
aL9L
aL0L
aL0L
aL0L
aL0L
aL0L
aL0L
aL0L
aL0L
aL0L
aL0L
aL0L
aL0L
aL0L
aL0L
aL0L
aL0L
aL0L
aL0L
aL0L
aL0L
aL0L
aF0.0
aL0L
aF0.0
aL0L
aL8L
aL5L
aL0L
aL0L
aL0L
aL0L
aL0L
aL0L
aL0L
aF0.0
aL0L
aL0L
aL0L
aF0.0
aL0L
aL0L
aL0L
aL0L
aL0L
aF0.0
aL0L
aL0L
aL0L
aL0L
aL0L
aF0.0
aF0.0
aL0L
aF0.0
aL11L
aL0L
aL0L
aL0L
aL0L
aL0L
aL8L
aL0L
aL9L
aL0L
aL0L
aL10L
aF0.0
aF0.0
aF0.0
aL0L
aF0.0
aL0L
aL0L
aL0L
aL0L
aL0L
aL0L
aL0L
aL0L
aL0L
aL0L
aL0L
aL0L
aL0L
aL0L
aF0.0
aF0.0
aL0L
aL0L
aL10L
aL11L
aL0L
aF0.0
aF0.0
aL0L
aL0L
aL10L
aF0.0
aL0L
aL0L
aL0L
aL8L
aF0.0
aL427178L
aL2557L
aL1L
ag14
aL6L
aL0L
aL0L
aL0L
aF0.0
aL0L
aF0.0
aL0L
aL0L
aL0L
aL0L
aL0L
aL0L
aL0L
aL0L
aL0L
aL0L
aL0L
aL0L
aL0L
aL9L
aL8L
aL5L
aL8L
aL0L
aL0L
aL0L
aL0L
aL0L
aL0L
aL0L
aL0L
aL0L
aL0L
aL0L
aL0L
aL0L
aL0L
aL0L
aL0L
aL0L
aL0L
aL0L
aL0L
aL0L
aL0L
aL0L
aL0L
aL0L
aL0L
aL0L
aL0L
aL0L
aL0L
aL0L
aL0L
aL0L
aL0L
aL0L
aL0L
aL0L
aL0L
aL0L
aL0L
aL0L
aL0L
aL0L
aL0L
aL0L
aL0L
aL0L
aL0L
aL0L
aL0L
aL0L
aL0L
aL0L
aL0L
aL0L
aL0L
aL0L
aL0L
aL0L
aL0L
aL0L
aL0L
aL0L
aL0L
aL0L
aL0L
aL0L
aL0L
aL0L
aL0L
aF0.0
aF0.0
aL0L
aL0L
aL0L
aL12L
aL12L
aL0L
aL0L
aL0L
aL0L
aL0L
aL0L
aL0L
aL0L
aL0L
aL0L
aL0L
aL0L
aL0L
aL0L
aL0L
aL0L
aL0L
aL0L
aL0L
aL0L
aL0L
aF0.0
aL0L
aF0.0
aL0L
aL6L
aL0L
aL5L
aL0L
aL0L
aL0L
aL0L
aL0L
aL0L
aF0.0
aL0L
aL0L
aL0L
aF0.0
aL0L
aL0L
aL0L
aL0L
aL0L
aF0.0
aL0L
aL0L
aL0L
aL0L
aL0L
aF0.0
aF0.0
aL0L
aF0.0
aL12L
aL0L
aL0L
aL0L
aL0L
aL0L
aL7L
aL0L
aL9L
aL0L
aL0L
aL10L
aF0.0
aF0.0
aF0.0
aL0L
aF0.0
aL0L
aL0L
aL0L
aL0L
aL0L
aL0L
aL0L
aL0L
aL0L
aL0L
aL0L
aL0L
aL0L
aL0L
aF0.0
aF0.0
aL0L
aL0L
aL12L
aL12L
aL0L
aF0.0
aF0.0
aL0L
aL0L
aL12L
aF0.0
aL0L
aL0L
aL0L
aL5L
aF0.0
aL427179L
aL2557L
aL1L
ag14
aL5L
aL0L
aL0L
aL0L
aF0.0
aL0L
aF0.0
aL0L
aL0L
aL0L
aL0L
aL0L
aL0L
aL0L
aL0L
aL0L
aL0L
aL0L
aL0L
aL0L
aL10L
aL9L
aL5L
aL6L
aL5L
aL0L
aL0L
aL0L
aL0L
aL0L
aL0L
aL0L
aL0L
aL0L
aL0L
aL0L
aL0L
aL0L
aL0L
aL0L
aL0L
aL0L
aL0L
aL0L
aL0L
aL0L
aL0L
aL0L
aL0L
aL0L
aL0L
aL0L
aL0L
aL0L
aL0L
aL0L
aL0L
aL0L
aL0L
aL0L
aL0L
aL0L
aL0L
aL0L
aL0L
aL0L
aL0L
aL0L
aL0L
aL0L
aL0L
aL0L
aL0L
aL0L
aL0L
aL0L
aL0L
aL0L
aL0L
aL0L
aL0L
aL0L
aL0L
aL0L
aL0L
aL0L
aL0L
aL0L
aL0L
aL0L
aL0L
aL0L
aL0L
aL0L
aF0.0
aF0.0
aL0L
aL0L
aL0L
aL9L
aL8L
aL0L
aL0L
aL0L
aL0L
aL0L
aL0L
aL0L
aL0L
aL0L
aL0L
aL0L
aL0L
aL0L
aL0L
aL0L
aL0L
aL0L
aL0L
aL0L
aL0L
aL0L
aF0.0
aL0L
aF0.0
aL0L
aL0L
aL0L
aL9L
aL13L
aL0L
aL0L
aL0L
aL0L
aL0L
aF0.0
aL0L
aL0L
aL0L
aF0.0
aL0L
aL0L
aL0L
aL0L
aL0L
aF0.0
aL0L
aL0L
aL0L
aL0L
aL0L
aF0.0
aF0.0
aL11L
aF0.0
aL10L
aL0L
aL0L
aL0L
aL0L
aL0L
aL0L
aL0L
aL0L
aL0L
aL0L
aL11L
aF0.0
aF0.0
aF0.0
aL0L
aF0.0
aL0L
aL0L
aL0L
aL0L
aL0L
aL0L
aL0L
aL0L
aL0L
aL0L
aL0L
aL0L
aL0L
aL0L
aF0.0
aF0.0
aL0L
aL0L
aL10L
aL9L
aL0L
aF0.0
aF0.0
aL0L
aL0L
aL10L
aF0.0
aL0L
aL0L
aL0L
aL9L
aF0.0
aL427180L
aL2557L
aL1L
ag14
aL7L
aL0L
aL0L
aL0L
aF0.0
aL0L
aF0.0
aL0L
aL0L
aL0L
aL0L
aL0L
aL0L
aL0L
aL0L
aL0L
aL0L
aL0L
aL0L
aL0L
aL10L
aL11L
aL5L
aL8L
aL0L
aL0L
aL0L
aL0L
aL0L
aL0L
aL0L
aL0L
aL0L
aL0L
aL0L
aL0L
aL0L
aL0L
aL0L
aL0L
aL0L
aL0L
aL0L
aL0L
aL0L
aL0L
aL0L
aL0L
aL0L
aL0L
aL0L
aL0L
aL0L
aL0L
aL0L
aL0L
aL0L
aL0L
aL0L
aL0L
aL0L
aL0L
aL0L
aL0L
aL0L
aL0L
aL0L
aL0L
aL0L
aL0L
aL0L
aL0L
aL0L
aL0L
aL0L
aL0L
aL0L
aL0L
aL0L
aL0L
aL0L
aL0L
aL0L
aL0L
aL0L
aL0L
aL0L
aL0L
aL0L
aL0L
aL0L
aL0L
aL0L
aL0L
aF0.0
aF0.0
aL0L
aL0L
aL0L
aL5L
aL9L
aL0L
aL0L
aL0L
aL0L
aL0L
aL0L
aL0L
aL0L
aL0L
aL0L
aL0L
aL0L
aL0L
aL0L
aL0L
aL0L
aL0L
aL0L
aL0L
aL0L
aL0L
aF0.0
aL0L
aF0.0
aL0L
aL10L
aL8L
aL0L
aL0L
aL0L
aL0L
aL0L
aL0L
aL0L
aF0.0
aL0L
aL0L
aL0L
aF0.0
aL0L
aL0L
aL0L
aL0L
aL0L
aF0.0
aL0L
aL0L
aL0L
aL0L
aL0L
aF0.0
aF0.0
aL0L
aF0.0
aL11L
aL0L
aL0L
aL0L
aL0L
aL0L
aL9L
aL0L
aL10L
aL0L
aL0L
aL9L
aF0.0
aF0.0
aF0.0
aL0L
aF0.0
aL0L
aL0L
aL0L
aL0L
aL0L
aL0L
aL0L
aL0L
aL0L
aL0L
aL0L
aL0L
aL0L
aL0L
aF0.0
aF0.0
aL0L
aL0L
aL11L
aL12L
aL0L
aF0.0
aF0.0
aL0L
aL0L
aL11L
aF0.0
aL0L
aL0L
aL0L
aL5L
aF0.0
aL427183L
aL2557L
aL1L
ag14
aL6L
aL0L
aL0L
aL0L
aF0.0
aL0L
aF0.0
aL0L
aL0L
aL0L
aL0L
aL0L
aL0L
aL0L
aL0L
aL0L
aL0L
aL0L
aL0L
aL0L
aL10L
aL10L
aL9L
aL7L
aL0L
aL0L
aL0L
aL0L
aL0L
aL0L
aL0L
aL0L
aL0L
aL0L
aL0L
aL0L
aL0L
aL0L
aL0L
aL0L
aL0L
aL0L
aL0L
aL0L
aL0L
aL0L
aL0L
aL0L
aL0L
aL0L
aL0L
aL0L
aL0L
aL0L
aL0L
aL0L
aL0L
aL0L
aL0L
aL0L
aL0L
aL0L
aL0L
aL0L
aL0L
aL0L
aL0L
aL0L
aL0L
aL0L
aL0L
aL0L
aL0L
aL0L
aL0L
aL0L
aL0L
aL0L
aL0L
aL0L
aL0L
aL0L
aL0L
aL0L
aL0L
aL0L
aL0L
aL0L
aL0L
aL0L
aL0L
aL0L
aL0L
aL0L
aF0.0
aF0.0
aL0L
aL0L
aL0L
aL9L
aL10L
aL0L
aL0L
aL0L
aL0L
aL0L
aL0L
aL0L
aL0L
aL0L
aL0L
aL0L
aL0L
aL0L
aL0L
aL0L
aL0L
aL0L
aL0L
aL0L
aL0L
aL0L
aF0.0
aL0L
aF0.0
aL0L
aL5L
aL0L
aL0L
aL0L
aL0L
aL0L
aL0L
aL0L
aL0L
aF0.0
aL0L
aL0L
aL0L
aF0.0
aL0L
aL0L
aL0L
aL0L
aL0L
aF0.0
aL0L
aL0L
aL0L
aL0L
aL0L
aF0.0
aF0.0
aL0L
aF0.0
aL12L
aL0L
aL0L
aL0L
aL0L
aL0L
aL5L
aL0L
aL7L
aL0L
aL0L
aL8L
aF0.0
aF0.0
aF0.0
aL0L
aF0.0
aL0L
aL0L
aL0L
aL0L
aL0L
aL0L
aL0L
aL0L
aL0L
aL0L
aL0L
aL0L
aL0L
aL0L
aF0.0
aF0.0
aL0L
aL0L
aL11L
aL11L
aL0L
aF0.0
aF0.0
aL0L
aL0L
aL11L
aF0.0
aL0L
aL0L
aL0L
aL8L
aF0.0
aL427185L
aL2557L
aL1L
ag14
aL8L
aL0L
aL0L
aL0L
aF0.0
aL0L
aF0.0
aL0L
aL0L
aL0L
aL0L
aL0L
aL0L
aL0L
aL0L
aL0L
aL0L
aL0L
aL0L
aL0L
aL11L
aL12L
aL13L
aL10L
aL13L
aL0L
aL0L
aL0L
aL0L
aL0L
aL0L
aL0L
aL0L
aL0L
aL0L
aL0L
aL0L
aL0L
aL0L
aL0L
aL0L
aL0L
aL0L
aL0L
aL0L
aL0L
aL0L
aL0L
aL0L
aL0L
aL0L
aL0L
aL0L
aL0L
aL0L
aL0L
aL0L
aL0L
aL0L
aL0L
aL0L
aL0L
aL0L
aL0L
aL0L
aL0L
aL0L
aL0L
aL0L
aL0L
aL0L
aL0L
aL0L
aL0L
aL0L
aL0L
aL0L
aL0L
aL0L
aL0L
aL0L
aL0L
aL0L
aL0L
aL0L
aL0L
aL0L
aL0L
aL0L
aL0L
aL0L
aL0L
aL0L
aL0L
aF0.0
aF0.0
aL0L
aL0L
aL0L
aL0L
aL13L
aL0L
aL0L
aL0L
aL0L
aL0L
aL0L
aL0L
aL0L
aL0L
aL0L
aL0L
aL0L
aL0L
aL0L
aL0L
aL0L
aL0L
aL0L
aL0L
aL0L
aL0L
aF0.0
aL0L
aF0.0
aL0L
aL11L
aL9L
aL0L
aL0L
aL0L
aL0L
aL0L
aL0L
aL0L
aF0.0
aL0L
aL0L
aL0L
aF0.0
aL0L
aL0L
aL0L
aL0L
aL0L
aF0.0
aL0L
aL0L
aL0L
aL0L
aL0L
aF0.0
aF0.0
aL0L
aF0.0
aL12L
aL0L
aL0L
aL0L
aL0L
aL0L
aL10L
aL0L
aL10L
aL0L
aL0L
aL11L
aF0.0
aF0.0
aF0.0
aL0L
aF0.0
aL0L
aL0L
aL0L
aL0L
aL0L
aL0L
aL0L
aL0L
aL0L
aL0L
aL0L
aL0L
aL0L
aL0L
aF0.0
aF0.0
aL0L
aL0L
aL13L
aL12L
aL0L
aF0.0
aF0.0
aL0L
aL0L
aL11L
aF0.0
aL0L
aL0L
aL0L
aL11L
aF0.0
aL427189L
aL2557L
aL1L
ag14
aL6L
aL0L
aL0L
aL0L
aF0.0
aL0L
aF0.0
aL0L
aL0L
aL0L
aL0L
aL0L
aL0L
aL0L
aL0L
aL0L
aL0L
aL0L
aL0L
aL0L
aL10L
aL9L
aL10L
aL7L
aL9L
aL0L
aL0L
aL0L
aL0L
aL0L
aL0L
aL0L
aL0L
aL0L
aL0L
aL0L
aL0L
aL0L
aL0L
aL0L
aL0L
aL0L
aL0L
aL0L
aL0L
aL0L
aL0L
aL0L
aL0L
aL0L
aL0L
aL0L
aL0L
aL0L
aL0L
aL0L
aL0L
aL0L
aL0L
aL0L
aL0L
aL0L
aL0L
aL0L
aL0L
aL0L
aL0L
aL0L
aL0L
aL0L
aL0L
aL0L
aL0L
aL0L
aL0L
aL0L
aL0L
aL0L
aL0L
aL0L
aL0L
aL0L
aL0L
aL0L
aL0L
aL0L
aL0L
aL0L
aL0L
aL0L
aL0L
aL0L
aL0L
aL0L
aF0.0
aF0.0
aL0L
aL0L
aL0L
aL11L
aL7L
aL0L
aL0L
aL0L
aL0L
aL0L
aL0L
aL0L
aL0L
aL0L
aL0L
aL0L
aL0L
aL0L
aL0L
aL0L
aL0L
aL0L
aL0L
aL0L
aL0L
aL0L
aF0.0
aL0L
aF0.0
aL0L
aL5L
aL0L
aL0L
aL0L
aL0L
aL0L
aL0L
aL0L
aL0L
aF0.0
aL0L
aL0L
aL0L
aF0.0
aL0L
aL0L
aL0L
aL0L
aL0L
aF0.0
aL0L
aL0L
aL0L
aL0L
aL0L
aF0.0
aF0.0
aL0L
aF0.0
aL13L
aL0L
aL0L
aL0L
aL0L
aL0L
aL8L
aL0L
aL10L
aL0L
aL0L
aL12L
aF0.0
aF0.0
aF0.0
aL0L
aF0.0
aL0L
aL0L
aL0L
aL12L
aL0L
aL0L
aL0L
aL0L
aL0L
aL0L
aL0L
aL0L
aL0L
aL0L
aF0.0
aF0.0
aL0L
aL0L
aL12L
aL12L
aL0L
aF0.0
aF0.0
aL0L
aL0L
aL11L
aF0.0
aL0L
aL0L
aL0L
aL10L
aF0.0
aL427190L
aL2557L
aL1L
ag14
aL6L
aL0L
aL0L
aL0L
aF0.0
aL0L
aF0.0
aL0L
aL0L
aL0L
aL0L
aL0L
aL0L
aL0L
aL0L
aL0L
aL0L
aL0L
aL0L
aL0L
aL10L
aL8L
aL8L
aL6L
aL10L
aL0L
aL0L
aL0L
aL0L
aL0L
aL0L
aL0L
aL0L
aL0L
aL0L
aL0L
aL0L
aL0L
aL0L
aL0L
aL0L
aL0L
aL0L
aL0L
aL0L
aL0L
aL0L
aL0L
aL0L
aL0L
aL0L
aL0L
aL0L
aL0L
aL0L
aL0L
aL0L
aL0L
aL0L
aL0L
aL0L
aL0L
aL0L
aL0L
aL0L
aL0L
aL0L
aL0L
aL0L
aL0L
aL0L
aL0L
aL0L
aL0L
aL0L
aL0L
aL0L
aL0L
aL0L
aL0L
aL0L
aL0L
aL0L
aL0L
aL0L
aL0L
aL0L
aL0L
aL0L
aL0L
aL0L
aL0L
aL0L
aL0L
aF0.0
aF0.0
aL0L
aL0L
aL0L
aL10L
aL9L
aL0L
aL0L
aL0L
aL0L
aL0L
aL0L
aL0L
aL0L
aL0L
aL0L
aL0L
aL0L
aL0L
aL0L
aL0L
aL0L
aL0L
aL0L
aL0L
aL0L
aL0L
aF0.0
aL0L
aF0.0
aL0L
aL7L
aL5L
aL0L
aL0L
aL0L
aL0L
aL0L
aL0L
aL0L
aF0.0
aL0L
aL0L
aL0L
aF0.0
aL0L
aL0L
aL0L
aL0L
aL0L
aF0.0
aL0L
aL0L
aL0L
aL0L
aL0L
aF0.0
aF0.0
aL0L
aF0.0
aL12L
aL0L
aL0L
aL0L
aL0L
aL0L
aL8L
aL0L
aL9L
aL0L
aL0L
aL9L
aF0.0
aF0.0
aF0.0
aL0L
aF0.0
aL0L
aL0L
aL0L
aL0L
aL0L
aL0L
aL0L
aL0L
aL0L
aL0L
aL0L
aL0L
aL0L
aL0L
aF0.0
aF0.0
aL0L
aL0L
aL11L
aL12L
aL0L
aF0.0
aF0.0
aL0L
aL0L
aL11L
aF0.0
aL0L
aL0L
aL0L
aL5L
aF0.0
aL427191L
aL2557L
aL1L
ag14
aL6L
aL0L
aL0L
aL0L
aF0.0
aL0L
aF0.0
aL0L
aL0L
aL0L
aL0L
aL0L
aL0L
aL0L
aL0L
aL0L
aL0L
aL0L
aL0L
aL0L
aL10L
aL10L
aL8L
aL8L
aL10L
aL0L
aL0L
aL0L
aL0L
aL0L
aL0L
aL0L
aL0L
aL0L
aL0L
aL0L
aL0L
aL0L
aL0L
aL0L
aL0L
aL0L
aL0L
aL0L
aL0L
aL0L
aL0L
aL0L
aL0L
aL0L
aL0L
aL0L
aL0L
aL0L
aL0L
aL0L
aL0L
aL0L
aL0L
aL0L
aL0L
aL0L
aL0L
aL0L
aL0L
aL0L
aL0L
aL0L
aL0L
aL0L
aL0L
aL0L
aL0L
aL0L
aL0L
aL0L
aL0L
aL0L
aL0L
aL0L
aL0L
aL0L
aL0L
aL0L
aL0L
aL0L
aL0L
aL0L
aL0L
aL0L
aL0L
aL0L
aL0L
aL0L
aF0.0
aF0.0
aL0L
aL0L
aL3L
aL8L
aL11L
aL0L
aL0L
aL0L
aL0L
aL0L
aL0L
aL0L
aL0L
aL0L
aL0L
aL0L
aL0L
aL0L
aL0L
aL0L
aL0L
aL0L
aL0L
aL0L
aL0L
aL0L
aF0.0
aL0L
aF0.0
aL0L
aL9L
aL7L
aL0L
aL0L
aL0L
aL0L
aL0L
aL0L
aL0L
aF0.0
aL0L
aL0L
aL0L
aF0.0
aL0L
aL0L
aL0L
aL0L
aL0L
aF0.0
aL0L
aL0L
aL0L
aL0L
aL0L
aF0.0
aF0.0
aL0L
aF0.0
aL12L
aL0L
aL0L
aL0L
aL0L
aL0L
aL8L
aL0L
aL9L
aL0L
aL0L
aL7L
aF0.0
aF0.0
aF0.0
aL0L
aF0.0
aL0L
aL0L
aL0L
aL0L
aL0L
aL0L
aL0L
aL0L
aL0L
aL0L
aL0L
aL0L
aL0L
aL0L
aF0.0
aF0.0
aL0L
aL0L
aL11L
aL12L
aL0L
aF0.0
aF0.0
aL0L
aL0L
aL10L
aF0.0
aL0L
aL0L
aL0L
aL8L
aF0.0
aL427195L
aL2557L
aL1L
ag14
aL6L
aL0L
aL0L
aL0L
aF0.0
aL0L
aF0.0
aL0L
aL0L
aL0L
aL0L
aL0L
aL0L
aL0L
aL0L
aL0L
aL0L
aL0L
aL0L
aL0L
aL9L
aL7L
aL5L
aL7L
aL0L
aL0L
aL0L
aL0L
aL0L
aL0L
aL0L
aL0L
aL0L
aL0L
aL0L
aL0L
aL0L
aL0L
aL0L
aL0L
aL0L
aL0L
aL0L
aL0L
aL0L
aL0L
aL0L
aL0L
aL0L
aL0L
aL0L
aL0L
aL0L
aL0L
aL0L
aL0L
aL0L
aL0L
aL0L
aL0L
aL0L
aL0L
aL0L
aL0L
aL0L
aL0L
aL0L
aL0L
aL0L
aL0L
aL0L
aL0L
aL0L
aL0L
aL0L
aL0L
aL0L
aL0L
aL0L
aL0L
aL0L
aL0L
aL0L
aL0L
aL0L
aL0L
aL0L
aL0L
aL0L
aL0L
aL0L
aL0L
aL0L
aL0L
aF0.0
aF0.0
aL0L
aL0L
aL0L
aL5L
aL8L
aL0L
aL0L
aL0L
aL0L
aL0L
aL0L
aL0L
aL0L
aL0L
aL0L
aL0L
aL0L
aL0L
aL0L
aL0L
aL0L
aL0L
aL0L
aL0L
aL0L
aL0L
aF0.0
aL0L
aF0.0
aL0L
aL5L
aL0L
aL0L
aL0L
aL0L
aL0L
aL0L
aL0L
aL0L
aF0.0
aL0L
aL0L
aL0L
aF0.0
aL0L
aL0L
aL0L
aL0L
aL0L
aF0.0
aL0L
aL0L
aL0L
aL0L
aL0L
aF0.0
aF0.0
aL0L
aF0.0
aL12L
aL0L
aL0L
aL0L
aL0L
aL0L
aL7L
aL0L
aL9L
aL0L
aL0L
aL0L
aF0.0
aF0.0
aF0.0
aL0L
aF0.0
aL0L
aL0L
aL0L
aL0L
aL0L
aL0L
aL0L
aL0L
aL0L
aL0L
aL0L
aL0L
aL0L
aL0L
aF0.0
aF0.0
aL0L
aL0L
aL11L
aL11L
aL0L
aF0.0
aF0.0
aL0L
aL0L
aL12L
aF0.0
aL0L
aL0L
aL0L
aL5L
aF0.0
aL427196L
aL2557L
aL1L
ag14
aL6L
aL0L
aL0L
aL0L
aF0.0
aL0L
aF0.0
aL0L
aL0L
aL0L
aL0L
aL0L
aL0L
aL0L
aL0L
aL0L
aL0L
aL0L
aL0L
aL0L
aL9L
aL9L
aL11L
aL7L
aL5L
aL0L
aL0L
aL0L
aL0L
aL0L
aL0L
aL0L
aL0L
aL0L
aL0L
aL0L
aL0L
aL0L
aL0L
aL0L
aL0L
aL0L
aL0L
aL0L
aL0L
aL0L
aL0L
aL0L
aL0L
aL0L
aL0L
aL0L
aL0L
aL0L
aL0L
aL0L
aL0L
aL0L
aL0L
aL0L
aL0L
aL0L
aL0L
aL0L
aL0L
aL0L
aL0L
aL0L
aL0L
aL0L
aL0L
aL0L
aL0L
aL0L
aL0L
aL0L
aL0L
aL0L
aL0L
aL0L
aL0L
aL0L
aL0L
aL0L
aL0L
aL0L
aL0L
aL0L
aL0L
aL0L
aL0L
aL0L
aL0L
aL0L
aF0.0
aF0.0
aL0L
aL0L
aL3L
aL7L
aL9L
aL0L
aL0L
aL0L
aL0L
aL0L
aL0L
aL0L
aL0L
aL0L
aL0L
aL0L
aL0L
aL0L
aL0L
aL0L
aL0L
aL0L
aL0L
aL0L
aL0L
aL0L
aF0.0
aL0L
aF0.0
aL0L
aL8L
aL5L
aL0L
aL0L
aL0L
aL0L
aL0L
aL0L
aL0L
aF0.0
aL0L
aL0L
aL0L
aF0.0
aL0L
aL0L
aL0L
aL0L
aL0L
aF0.0
aL0L
aL0L
aL0L
aL0L
aL0L
aF0.0
aF0.0
aL0L
aF0.0
aL11L
aL0L
aL0L
aL0L
aL0L
aL0L
aL6L
aL0L
aL9L
aL0L
aL0L
aL7L
aF0.0
aF0.0
aF0.0
aL0L
aF0.0
aL0L
aL0L
aL0L
aL0L
aL0L
aL0L
aL0L
aL0L
aL0L
aL0L
aL0L
aL0L
aL0L
aL0L
aF0.0
aF0.0
aL0L
aL0L
aL11L
aL12L
aL0L
aF0.0
aF0.0
aL0L
aL0L
aL11L
aF0.0
aL0L
aL0L
aL0L
aL5L
aF0.0
aL427197L
aL2557L
aL1L
ag14
aL5L
aL0L
aL0L
aL0L
aF0.0
aL0L
aF0.0
aL0L
aL0L
aL0L
aL0L
aL0L
aL0L
aL0L
aL0L
aL0L
aL0L
aL0L
aL0L
aL0L
aL7L
aL8L
aL7L
aL6L
aL0L
aL0L
aL0L
aL0L
aL0L
aL0L
aL0L
aL0L
aL0L
aL0L
aL0L
aL0L
aL0L
aL0L
aL0L
aL0L
aL0L
aL0L
aL0L
aL0L
aL0L
aL0L
aL0L
aL0L
aL0L
aL0L
aL0L
aL0L
aL0L
aL0L
aL0L
aL0L
aL0L
aL0L
aL0L
aL0L
aL0L
aL0L
aL0L
aL0L
aL0L
aL0L
aL0L
aL0L
aL0L
aL0L
aL0L
aL0L
aL0L
aL0L
aL0L
aL0L
aL0L
aL0L
aL0L
aL0L
aL0L
aL0L
aL0L
aL0L
aL0L
aL0L
aL0L
aL0L
aL0L
aL0L
aL0L
aL0L
aL0L
aL0L
aF0.0
aF0.0
aL0L
aL0L
aL0L
aL10L
aL8L
aL0L
aL0L
aL0L
aL0L
aL0L
aL0L
aL0L
aL0L
aL0L
aL0L
aL0L
aL0L
aL0L
aL0L
aL0L
aL0L
aL0L
aL0L
aL0L
aL0L
aL0L
aF0.0
aL0L
aF0.0
aL0L
aL5L
aL0L
aL0L
aL0L
aL0L
aL0L
aL0L
aL0L
aL0L
aF0.0
aL0L
aL0L
aL0L
aF0.0
aL0L
aL0L
aL0L
aL0L
aL0L
aF0.0
aL0L
aL0L
aL0L
aL0L
aL0L
aF0.0
aF0.0
aL0L
aF0.0
aL11L
aL0L
aL0L
aL0L
aL0L
aL0L
aL5L
aL0L
aL11L
aL0L
aL0L
aL7L
aF0.0
aF0.0
aF0.0
aL0L
aF0.0
aL0L
aL0L
aL0L
aL0L
aL0L
aL0L
aL0L
aL0L
aL0L
aL0L
aL0L
aL0L
aL0L
aL0L
aF0.0
aF0.0
aL0L
aL0L
aL10L
aL10L
aL0L
aF0.0
aF0.0
aL0L
aL0L
aL12L
aF0.0
aL0L
aL0L
aL0L
aL5L
aF0.0
aL427198L
aL2557L
aL1L
ag14
aL6L
aL0L
aL0L
aL0L
aF0.0
aL0L
aF0.0
aL0L
aL0L
aL0L
aL0L
aL0L
aL0L
aL0L
aL0L
aL0L
aL0L
aL0L
aL0L
aL0L
aL9L
aL9L
aL9L
aL6L
aL0L
aL0L
aL0L
aL0L
aL0L
aL0L
aL0L
aL0L
aL0L
aL0L
aL0L
aL0L
aL0L
aL0L
aL0L
aL0L
aL0L
aL0L
aL0L
aL0L
aL0L
aL0L
aL0L
aL0L
aL0L
aL0L
aL0L
aL0L
aL0L
aL0L
aL0L
aL0L
aL0L
aL0L
aL0L
aL0L
aL0L
aL0L
aL0L
aL0L
aL0L
aL0L
aL0L
aL0L
aL0L
aL0L
aL0L
aL0L
aL0L
aL0L
aL0L
aL0L
aL0L
aL0L
aL0L
aL0L
aL0L
aL0L
aL0L
aL0L
aL0L
aL0L
aL0L
aL0L
aL0L
aL0L
aL0L
aL0L
aL0L
aL0L
aF0.0
aF0.0
aL0L
aL0L
aL3L
aL7L
aL9L
aL0L
aL0L
aL0L
aL0L
aL0L
aL0L
aL0L
aL0L
aL0L
aL0L
aL0L
aL0L
aL0L
aL0L
aL0L
aL0L
aL0L
aL0L
aL0L
aL0L
aL0L
aF0.0
aL0L
aF0.0
aL0L
aL0L
aL0L
aL5L
aL0L
aL0L
aL0L
aL0L
aL0L
aL0L
aF0.0
aL0L
aL0L
aL0L
aF0.0
aL0L
aL0L
aL0L
aL0L
aL0L
aF0.0
aL0L
aL0L
aL0L
aL0L
aL0L
aF0.0
aF0.0
aL0L
aF0.0
aL11L
aL0L
aL0L
aL0L
aL0L
aL0L
aL5L
aL0L
aL10L
aL0L
aL0L
aL8L
aF0.0
aF0.0
aF0.0
aL0L
aF0.0
aL0L
aL0L
aL0L
aL0L
aL0L
aL0L
aL0L
aL0L
aL0L
aL0L
aL0L
aL0L
aL0L
aL0L
aF0.0
aF0.0
aL0L
aL0L
aL12L
aL11L
aL0L
aF0.0
aF0.0
aL0L
aL0L
aL11L
aF0.0
aL0L
aL0L
aL0L
aL5L
aF0.0
aL427199L
aL2557L
aL1L
ag14
aL8L
aL0L
aL0L
aL0L
aF0.0
aL0L
aF0.0
aL0L
aL0L
aL0L
aL0L
aL0L
aL0L
aL0L
aL0L
aL0L
aL0L
aL0L
aL0L
aL0L
aL10L
aL12L
aL12L
aL10L
aL11L
aL0L
aL0L
aL0L
aL0L
aL0L
aL0L
aL0L
aL0L
aL0L
aL0L
aL0L
aL0L
aL0L
aL0L
aL0L
aL0L
aL0L
aL0L
aL0L
aL0L
aL0L
aL0L
aL0L
aL0L
aL0L
aL0L
aL0L
aL0L
aL0L
aL0L
aL0L
aL0L
aL0L
aL0L
aL0L
aL0L
aL0L
aL0L
aL0L
aL0L
aL0L
aL0L
aL0L
aL0L
aL0L
aL0L
aL0L
aL0L
aL0L
aL0L
aL0L
aL0L
aL0L
aL0L
aL0L
aL0L
aL0L
aL0L
aL0L
aL0L
aL0L
aL0L
aL0L
aL0L
aL0L
aL0L
aL0L
aL0L
aL0L
aF0.0
aF0.0
aL0L
aL0L
aL3L
aL9L
aL9L
aL0L
aL0L
aL0L
aL0L
aL0L
aL0L
aL0L
aL0L
aL0L
aL0L
aL0L
aL0L
aL0L
aL0L
aL0L
aL0L
aL0L
aL0L
aL0L
aL0L
aL0L
aF0.0
aL0L
aF0.0
aL0L
aL10L
aL7L
aL0L
aL0L
aL0L
aL0L
aL0L
aL0L
aL0L
aF0.0
aL0L
aL0L
aL0L
aF0.0
aL0L
aL0L
aL0L
aL0L
aL0L
aF0.0
aL0L
aL0L
aL0L
aL0L
aL0L
aF0.0
aF0.0
aL0L
aF0.0
aL12L
aL0L
aL0L
aL0L
aL0L
aL0L
aL9L
aL0L
aL10L
aL0L
aL0L
aL10L
aF0.0
aF0.0
aF0.0
aL0L
aF0.0
aL0L
aL0L
aL0L
aL0L
aL0L
aL0L
aL0L
aL0L
aL0L
aL0L
aL0L
aL0L
aL0L
aL0L
aF0.0
aF0.0
aL0L
aL0L
aL10L
aL11L
aL0L
aF0.0
aF0.0
aL0L
aL0L
aL10L
aF0.0
aL0L
aL0L
aL0L
aL10L
aF0.0
aL427201L
aL2557L
aL1L
ag14
aL6L
aL0L
aL0L
aL0L
aF0.0
aL0L
aF0.0
aL0L
aL0L
aL0L
aL0L
aL0L
aL0L
aL0L
aL0L
aL0L
aL0L
aL0L
aL0L
aL0L
aL9L
aL9L
aL7L
aL6L
aL0L
aL0L
aL0L
aL0L
aL0L
aL0L
aL0L
aL0L
aL0L
aL0L
aL0L
aL0L
aL0L
aL0L
aL0L
aL0L
aL0L
aL0L
aL0L
aL0L
aL0L
aL0L
aL0L
aL0L
aL0L
aL0L
aL0L
aL0L
aL0L
aL0L
aL0L
aL0L
aL0L
aL0L
aL0L
aL0L
aL0L
aL0L
aL0L
aL0L
aL0L
aL0L
aL0L
aL0L
aL0L
aL0L
aL0L
aL0L
aL0L
aL0L
aL0L
aL0L
aL0L
aL0L
aL0L
aL0L
aL0L
aL0L
aL0L
aL0L
aL0L
aL0L
aL0L
aL0L
aL0L
aL0L
aL0L
aL0L
aL0L
aL0L
aF0.0
aF0.0
aL0L
aL0L
aL0L
aL6L
aL0L
aL0L
aL0L
aL0L
aL0L
aL0L
aL0L
aL0L
aL0L
aL0L
aL0L
aL0L
aL0L
aL0L
aL0L
aL0L
aL0L
aL0L
aL0L
aL0L
aL0L
aL0L
aF0.0
aL0L
aF0.0
aL0L
aL5L
aL0L
aL0L
aL0L
aL0L
aL0L
aL0L
aL0L
aL0L
aF0.0
aL0L
aL0L
aL0L
aF0.0
aL0L
aL0L
aL0L
aL0L
aL0L
aF0.0
aL0L
aL0L
aL0L
aL0L
aL0L
aF0.0
aF0.0
aL0L
aF0.0
aL12L
aL0L
aL0L
aL0L
aL0L
aL0L
aL8L
aL0L
aL9L
aL0L
aL0L
aL9L
aF0.0
aF0.0
aF0.0
aL0L
aF0.0
aL0L
aL0L
aL0L
aL0L
aL0L
aL0L
aL0L
aL0L
aL0L
aL0L
aL0L
aL0L
aL0L
aL0L
aF0.0
aF0.0
aL0L
aL0L
aL12L
aL12L
aL0L
aF0.0
aF0.0
aL0L
aL0L
aL11L
aF0.0
aL0L
aL0L
aL0L
aL5L
aF0.0
aL427204L
aL2557L
aL1L
ag14
aL6L
aL0L
aL0L
aL0L
aF0.0
aL0L
aF0.0
aL0L
aL0L
aL0L
aL0L
aL0L
aL0L
aL0L
aL0L
aL0L
aL0L
aL0L
aL0L
aL0L
aL9L
aL9L
aL7L
aL6L
aL0L
aL0L
aL0L
aL0L
aL0L
aL0L
aL0L
aL0L
aL0L
aL0L
aL0L
aL0L
aL0L
aL0L
aL0L
aL0L
aL0L
aL0L
aL0L
aL0L
aL0L
aL0L
aL0L
aL0L
aL0L
aL0L
aL0L
aL0L
aL0L
aL0L
aL0L
aL0L
aL0L
aL0L
aL0L
aL0L
aL0L
aL0L
aL0L
aL0L
aL0L
aL0L
aL0L
aL0L
aL0L
aL0L
aL0L
aL0L
aL0L
aL0L
aL0L
aL0L
aL0L
aL0L
aL0L
aL0L
aL0L
aL0L
aL0L
aL0L
aL0L
aL0L
aL0L
aL0L
aL0L
aL0L
aL0L
aL0L
aL0L
aL0L
aF0.0
aF0.0
aL0L
aL0L
aL0L
aL0L
aL11L
aL0L
aL0L
aL0L
aL0L
aL0L
aL0L
aL0L
aL0L
aL0L
aL0L
aL0L
aL0L
aL0L
aL0L
aL0L
aL0L
aL0L
aL0L
aL0L
aL0L
aL0L
aF0.0
aL0L
aF0.0
aL0L
aL5L
aL0L
aL0L
aL0L
aL0L
aL0L
aL0L
aL0L
aL0L
aF0.0
aL0L
aL0L
aL0L
aF0.0
aL0L
aL0L
aL0L
aL0L
aL0L
aF0.0
aL0L
aL0L
aL0L
aL0L
aL0L
aF0.0
aF0.0
aL0L
aF0.0
aL10L
aL0L
aL0L
aL0L
aL0L
aL0L
aL6L
aL0L
aL7L
aL0L
aL0L
aL9L
aF0.0
aF0.0
aF0.0
aL0L
aF0.0
aL0L
aL0L
aL0L
aL0L
aL0L
aL0L
aL0L
aL0L
aL0L
aL0L
aL0L
aL0L
aL0L
aL0L
aF0.0
aF0.0
aL0L
aL0L
aL12L
aL5L
aL0L
aF0.0
aF0.0
aL0L
aL0L
aL11L
aF0.0
aL0L
aL0L
aL0L
aL5L
aF0.0
aL427206L
aL2557L
aL1L
ag14
aL5L
aL0L
aL0L
aL0L
aF0.0
aL0L
aF0.0
aL0L
aL0L
aL0L
aL0L
aL0L
aL0L
aL0L
aL0L
aL0L
aL0L
aL0L
aL0L
aL0L
aL9L
aL9L
aL8L
aL6L
aL9L
aL0L
aL0L
aL0L
aL0L
aL0L
aL0L
aL0L
aL0L
aL0L
aL0L
aL0L
aL0L
aL0L
aL0L
aL0L
aL0L
aL0L
aL0L
aL0L
aL0L
aL0L
aL0L
aL0L
aL0L
aL0L
aL0L
aL0L
aL0L
aL0L
aL0L
aL0L
aL0L
aL0L
aL0L
aL0L
aL0L
aL0L
aL0L
aL0L
aL0L
aL0L
aL0L
aL0L
aL0L
aL0L
aL0L
aL0L
aL0L
aL0L
aL0L
aL0L
aL0L
aL0L
aL0L
aL0L
aL0L
aL0L
aL0L
aL0L
aL0L
aL0L
aL0L
aL0L
aL0L
aL0L
aL0L
aL0L
aL0L
aL0L
aF0.0
aF0.0
aL0L
aL0L
aL0L
aL8L
aL7L
aL0L
aL0L
aL0L
aL0L
aL0L
aL0L
aL0L
aL0L
aL0L
aL0L
aL0L
aL0L
aL0L
aL0L
aL0L
aL0L
aL0L
aL0L
aL0L
aL0L
aL0L
aF0.0
aL0L
aF0.0
aL0L
aL5L
aL0L
aL0L
aL0L
aL0L
aL0L
aL0L
aL0L
aL0L
aF0.0
aL0L
aL0L
aL0L
aF0.0
aL0L
aL0L
aL0L
aL0L
aL0L
aF0.0
aL0L
aL0L
aL0L
aL0L
aL0L
aF0.0
aF0.0
aL0L
aF0.0
aL11L
aL0L
aL0L
aL0L
aL0L
aL0L
aL7L
aL0L
aL9L
aL0L
aL0L
aL8L
aF0.0
aF0.0
aF0.0
aL0L
aF0.0
aL0L
aL0L
aL0L
aL11L
aL0L
aL0L
aL0L
aL0L
aL0L
aL0L
aL0L
aL0L
aL0L
aL0L
aF0.0
aF0.0
aL0L
aL0L
aL10L
aL11L
aL0L
aF0.0
aF0.0
aL0L
aL0L
aL10L
aF0.0
aL0L
aL0L
aL0L
aL7L
aF0.0
aL427207L
aL2557L
aL1L
ag14
aL6L
aL0L
aL0L
aL0L
aF0.0
aL0L
aF0.0
aL0L
aL0L
aL0L
aL0L
aL0L
aL0L
aL0L
aL0L
aL0L
aL0L
aL0L
aL0L
aL0L
aL9L
aL9L
aL9L
aL6L
aL10L
aL0L
aL0L
aL0L
aL0L
aL0L
aL0L
aL0L
aL0L
aL0L
aL0L
aL0L
aL0L
aL0L
aL0L
aL0L
aL0L
aL0L
aL0L
aL0L
aL0L
aL0L
aL0L
aL0L
aL0L
aL0L
aL0L
aL0L
aL0L
aL0L
aL0L
aL0L
aL0L
aL0L
aL0L
aL0L
aL0L
aL0L
aL0L
aL0L
aL0L
aL0L
aL0L
aL0L
aL0L
aL0L
aL0L
aL0L
aL0L
aL0L
aL0L
aL0L
aL0L
aL0L
aL0L
aL0L
aL0L
aL0L
aL0L
aL0L
aL0L
aL0L
aL0L
aL0L
aL0L
aL0L
aL0L
aL0L
aL0L
aL0L
aF0.0
aF0.0
aL0L
aL0L
aL0L
aL11L
aL8L
aL0L
aL0L
aL0L
aL0L
aL0L
aL0L
aL0L
aL0L
aL0L
aL0L
aL0L
aL0L
aL0L
aL0L
aL0L
aL0L
aL0L
aL0L
aL0L
aL0L
aL0L
aF0.0
aL0L
aF0.0
aL0L
aL5L
aL0L
aL0L
aL0L
aL0L
aL0L
aL0L
aL0L
aL0L
aF0.0
aL0L
aL0L
aL0L
aF0.0
aL0L
aL0L
aL0L
aL0L
aL0L
aF0.0
aL0L
aL0L
aL0L
aL0L
aL0L
aF0.0
aF0.0
aL0L
aF0.0
aL13L
aL0L
aL0L
aL0L
aL0L
aL0L
aL6L
aL0L
aL10L
aL0L
aL0L
aL7L
aF0.0
aF0.0
aF0.0
aL0L
aF0.0
aL0L
aL0L
aL0L
aL12L
aL0L
aL0L
aL0L
aL0L
aL0L
aL0L
aL0L
aL0L
aL0L
aL0L
aF0.0
aF0.0
aL0L
aL0L
aL12L
aL11L
aL0L
aF0.0
aF0.0
aL0L
aL0L
aL11L
aF0.0
aL0L
aL0L
aL0L
aL6L
aF0.0
aL427211L
aL2557L
aL1L
ag14
aL7L
aL0L
aL0L
aL0L
aF0.0
aL0L
aF0.0
aL0L
aL0L
aL0L
aL0L
aL0L
aL0L
aL0L
aL0L
aL0L
aL0L
aL0L
aL0L
aL0L
aL10L
aL10L
aL5L
aL9L
aL0L
aL0L
aL0L
aL0L
aL0L
aL0L
aL0L
aL0L
aL0L
aL0L
aL0L
aL0L
aL0L
aL0L
aL0L
aL0L
aL0L
aL0L
aL0L
aL0L
aL0L
aL0L
aL0L
aL0L
aL0L
aL0L
aL0L
aL0L
aL0L
aL0L
aL0L
aL0L
aL0L
aL0L
aL0L
aL0L
aL0L
aL0L
aL0L
aL0L
aL0L
aL0L
aL0L
aL0L
aL0L
aL0L
aL0L
aL0L
aL0L
aL0L
aL0L
aL0L
aL0L
aL0L
aL0L
aL0L
aL0L
aL0L
aL0L
aL0L
aL0L
aL0L
aL0L
aL0L
aL0L
aL0L
aL0L
aL0L
aL0L
aL0L
aF0.0
aF0.0
aL0L
aL0L
aL3L
aL8L
aL9L
aL0L
aL0L
aL0L
aL0L
aL0L
aL0L
aL0L
aL0L
aL0L
aL0L
aL0L
aL0L
aL0L
aL0L
aL0L
aL0L
aL0L
aL0L
aL0L
aL0L
aL0L
aF0.0
aL0L
aF0.0
aL0L
aL9L
aL5L
aL0L
aL0L
aL0L
aL0L
aL0L
aL0L
aL0L
aF0.0
aL0L
aL0L
aL0L
aF0.0
aL0L
aL0L
aL0L
aL0L
aL0L
aF0.0
aL0L
aL0L
aL0L
aL0L
aL0L
aF0.0
aF0.0
aL0L
aF0.0
aL12L
aL0L
aL0L
aL0L
aL0L
aL0L
aL10L
aL0L
aL10L
aL0L
aL0L
aL11L
aF0.0
aF0.0
aF0.0
aL0L
aF0.0
aL0L
aL0L
aL0L
aL0L
aL0L
aL0L
aL0L
aL0L
aL0L
aL0L
aL0L
aL0L
aL0L
aL0L
aF0.0
aF0.0
aL0L
aL0L
aL11L
aL12L
aL0L
aF0.0
aF0.0
aL0L
aL0L
aL11L
aF0.0
aL0L
aL0L
aL0L
aL9L
aF0.0
aL427212L
aL2557L
aL1L
ag14
aL6L
aL0L
aL0L
aL0L
aF0.0
aL0L
aF0.0
aL0L
aL0L
aL0L
aL0L
aL0L
aL0L
aL0L
aL0L
aL0L
aL0L
aL0L
aL0L
aL0L
aL10L
aL7L
aL7L
aL6L
aL5L
aL0L
aL0L
aL0L
aL0L
aL0L
aL0L
aL0L
aL0L
aL0L
aL0L
aL0L
aL0L
aL0L
aL0L
aL0L
aL0L
aL0L
aL0L
aL0L
aL0L
aL0L
aL0L
aL0L
aL0L
aL0L
aL0L
aL0L
aL0L
aL0L
aL0L
aL0L
aL0L
aL0L
aL0L
aL0L
aL0L
aL0L
aL0L
aL0L
aL0L
aL0L
aL0L
aL0L
aL0L
aL0L
aL0L
aL0L
aL0L
aL0L
aL0L
aL0L
aL0L
aL0L
aL0L
aL0L
aL0L
aL0L
aL0L
aL0L
aL0L
aL0L
aL0L
aL0L
aL0L
aL0L
aL0L
aL0L
aL0L
aL0L
aF0.0
aF0.0
aL0L
aL0L
aL0L
aL0L
aL13L
aL0L
aL0L
aL0L
aL0L
aL0L
aL0L
aL0L
aL0L
aL0L
aL0L
aL0L
aL0L
aL0L
aL0L
aL0L
aL0L
aL0L
aL0L
aL0L
aL0L
aL0L
aF0.0
aL0L
aF0.0
aL0L
aL0L
aL0L
aL7L
aL0L
aL0L
aL0L
aL0L
aL0L
aL0L
aF0.0
aL0L
aL0L
aL0L
aF0.0
aL0L
aL0L
aL0L
aL0L
aL0L
aF0.0
aL0L
aL0L
aL0L
aL0L
aL0L
aF0.0
aF0.0
aL0L
aF0.0
aL9L
aL0L
aL0L
aL0L
aL0L
aL9L
aL0L
aL6L
aL0L
aL0L
aL0L
aL8L
aF0.0
aF0.0
aF0.0
aL0L
aF0.0
aL0L
aL0L
aL0L
aL0L
aL0L
aL0L
aL0L
aL0L
aL0L
aL0L
aL0L
aL0L
aL0L
aL0L
aF0.0
aF0.0
aL0L
aL0L
aL11L
aL11L
aL0L
aF0.0
aF0.0
aL0L
aL0L
aL11L
aF0.0
aL0L
aL0L
aL0L
aL7L
aF0.0
aL427880L
aL2557L
aL1L
ag14
aL7L
aL0L
aL0L
aL0L
aF0.0
aL0L
aF0.0
aL0L
aL0L
aL0L
aL0L
aL0L
aL0L
aL0L
aL0L
aL0L
aL0L
aL0L
aL0L
aL0L
aL9L
aL9L
aL9L
aL6L
aL0L
aL0L
aL0L
aL0L
aL0L
aL0L
aL0L
aL0L
aL0L
aL0L
aL0L
aL0L
aL0L
aL0L
aL0L
aL0L
aL0L
aL0L
aL0L
aL0L
aL0L
aL0L
aL0L
aL0L
aL0L
aL0L
aL0L
aL0L
aL0L
aL0L
aL0L
aL0L
aL0L
aL0L
aL0L
aL0L
aL0L
aL0L
aL0L
aL0L
aL0L
aL0L
aL0L
aL0L
aL0L
aL0L
aL0L
aL0L
aL0L
aL0L
aL0L
aL0L
aL0L
aL0L
aL0L
aL0L
aL0L
aL0L
aL0L
aL0L
aL0L
aL0L
aL0L
aL0L
aL0L
aL0L
aL0L
aL0L
aL0L
aL0L
aF0.0
aF0.0
aL0L
aL0L
aL3L
aL5L
aL0L
aL0L
aL0L
aL0L
aL0L
aL0L
aL0L
aL0L
aL0L
aL0L
aL0L
aL0L
aL0L
aL0L
aL0L
aL0L
aL0L
aL0L
aL0L
aL0L
aL0L
aL0L
aF0.0
aL0L
aF0.0
aL0L
aL5L
aL0L
aL5L
aL0L
aL0L
aL0L
aL0L
aL0L
aL0L
aF0.0
aL0L
aL0L
aL0L
aF0.0
aL0L
aL0L
aL0L
aL0L
aL0L
aF0.0
aL0L
aL0L
aL0L
aL0L
aL0L
aF0.0
aF0.0
aL0L
aF0.0
aL9L
aL0L
aL0L
aL0L
aL0L
aL0L
aL5L
aL0L
aL7L
aL0L
aL0L
aL9L
aF0.0
aF0.0
aF0.0
aL0L
aF0.0
aL0L
aL0L
aL0L
aL10L
aL0L
aL0L
aL0L
aL0L
aL0L
aL0L
aL0L
aL0L
aL0L
aL0L
aF0.0
aF0.0
aL0L
aL0L
aL8L
aL11L
aL0L
aF0.0
aF0.0
aL0L
aL0L
aL9L
aF0.0
aL0L
aL0L
aL0L
aL5L
aF0.0
aL427881L
aL2557L
aL1L
ag14
aL5L
aL0L
aL0L
aL0L
aF0.0
aL0L
aF0.0
aL0L
aL0L
aL0L
aL0L
aL0L
aL0L
aL0L
aL0L
aL0L
aL0L
aL0L
aL0L
aL0L
aL10L
aL7L
aL5L
aL6L
aL0L
aL0L
aL0L
aL0L
aL0L
aL0L
aL0L
aL0L
aL0L
aL0L
aL0L
aL0L
aL0L
aL0L
aL0L
aL0L
aL0L
aL0L
aL0L
aL0L
aL0L
aL0L
aL0L
aL0L
aL0L
aL0L
aL0L
aL0L
aL0L
aL0L
aL0L
aL0L
aL0L
aL0L
aL0L
aL0L
aL0L
aL0L
aL0L
aL0L
aL0L
aL0L
aL0L
aL0L
aL0L
aL0L
aL0L
aL0L
aL0L
aL0L
aL0L
aL0L
aL0L
aL0L
aL0L
aL0L
aL0L
aL0L
aL0L
aL0L
aL0L
aL0L
aL0L
aL0L
aL0L
aL0L
aL0L
aL0L
aL0L
aL0L
aF0.0
aF0.0
aL0L
aL0L
aL3L
aL7L
aL9L
aL0L
aL0L
aL0L
aL0L
aL0L
aL0L
aL0L
aL0L
aL0L
aL0L
aL0L
aL0L
aL0L
aL0L
aL0L
aL0L
aL0L
aL0L
aL0L
aL0L
aL0L
aF0.0
aL0L
aF0.0
aL0L
aL5L
aL0L
aL0L
aL0L
aL0L
aL0L
aL0L
aL0L
aL0L
aF0.0
aL0L
aL0L
aL0L
aF0.0
aL0L
aL0L
aL0L
aL0L
aL0L
aF0.0
aL0L
aL0L
aL0L
aL0L
aL0L
aF0.0
aF0.0
aL0L
aF0.0
aL12L
aL0L
aL0L
aL0L
aL0L
aL0L
aL5L
aL0L
aL7L
aL0L
aL0L
aL7L
aF0.0
aF0.0
aF0.0
aL0L
aF0.0
aL0L
aL0L
aL0L
aL0L
aL0L
aL0L
aL0L
aL0L
aL0L
aL0L
aL0L
aL0L
aL0L
aL0L
aF0.0
aF0.0
aL0L
aL0L
aL11L
aL12L
aL0L
aF0.0
aF0.0
aL0L
aL0L
aL10L
aF0.0
aL0L
aL0L
aL0L
aL7L
aF0.0
aL427882L
aL2557L
aL1L
ag14
aL6L
aL0L
aL0L
aL0L
aF0.0
aL0L
aF0.0
aL0L
aL0L
aL0L
aL0L
aL0L
aL0L
aL0L
aL0L
aL0L
aL0L
aL0L
aL0L
aL0L
aL9L
aL7L
aL0L
aL6L
aL0L
aL0L
aL0L
aL0L
aL0L
aL0L
aL0L
aL0L
aL0L
aL0L
aL0L
aL0L
aL0L
aL0L
aL0L
aL0L
aL0L
aL0L
aL0L
aL0L
aL0L
aL0L
aL0L
aL0L
aL0L
aL0L
aL0L
aL0L
aL0L
aL0L
aL0L
aL0L
aL0L
aL0L
aL0L
aL0L
aL0L
aL0L
aL0L
aL0L
aL0L
aL0L
aL0L
aL0L
aL0L
aL0L
aL0L
aL0L
aL0L
aL0L
aL0L
aL0L
aL0L
aL0L
aL0L
aL0L
aL0L
aL0L
aL0L
aL0L
aL0L
aL0L
aL0L
aL0L
aL0L
aL0L
aL0L
aL0L
aL0L
aL0L
aF0.0
aF0.0
aL0L
aL0L
aL3L
aL7L
aL9L
aL0L
aL0L
aL0L
aL0L
aL0L
aL0L
aL0L
aL0L
aL0L
aL0L
aL0L
aL0L
aL0L
aL0L
aL0L
aL0L
aL0L
aL0L
aL0L
aL0L
aL0L
aF0.0
aL0L
aF0.0
aL0L
aL0L
aL0L
aL0L
aL0L
aL0L
aL0L
aL0L
aL0L
aL0L
aF0.0
aL0L
aL0L
aL0L
aF0.0
aL0L
aL0L
aL0L
aL0L
aL0L
aF0.0
aL0L
aL0L
aL0L
aL0L
aL0L
aF0.0
aF0.0
aL0L
aF0.0
aL11L
aL0L
aL0L
aL0L
aL0L
aL0L
aL5L
aL0L
aL7L
aL0L
aL0L
aL9L
aF0.0
aF0.0
aF0.0
aL0L
aF0.0
aL0L
aL0L
aL0L
aL0L
aL0L
aL0L
aL0L
aL0L
aL0L
aL0L
aL0L
aL0L
aL0L
aL0L
aF0.0
aF0.0
aL0L
aL0L
aL11L
aL11L
aL0L
aF0.0
aF0.0
aL0L
aL0L
aL12L
aF0.0
aL0L
aL0L
aL0L
aL5L
aF0.0
aL427883L
aL2557L
aL1L
ag14
aL5L
aL0L
aL0L
aL0L
aF0.0
aL0L
aF0.0
aL0L
aL0L
aL0L
aL0L
aL0L
aL0L
aL0L
aL0L
aL0L
aL0L
aL0L
aL0L
aL0L
aL7L
aL8L
aL7L
aL6L
aL0L
aL0L
aL0L
aL0L
aL0L
aL0L
aL0L
aL0L
aL0L
aL0L
aL0L
aL0L
aL0L
aL0L
aL0L
aL0L
aL0L
aL0L
aL0L
aL0L
aL0L
aL0L
aL0L
aL0L
aL0L
aL0L
aL0L
aL0L
aL0L
aL0L
aL0L
aL0L
aL0L
aL0L
aL0L
aL0L
aL0L
aL0L
aL0L
aL0L
aL0L
aL0L
aL0L
aL0L
aL0L
aL0L
aL0L
aL0L
aL0L
aL0L
aL0L
aL0L
aL0L
aL0L
aL0L
aL0L
aL0L
aL0L
aL0L
aL0L
aL0L
aL0L
aL0L
aL0L
aL0L
aL0L
aL0L
aL0L
aL0L
aL0L
aF0.0
aF0.0
aL0L
aL0L
aL3L
aL7L
aL9L
aL0L
aL0L
aL0L
aL0L
aL0L
aL0L
aL0L
aL0L
aL0L
aL0L
aL0L
aL0L
aL0L
aL0L
aL0L
aL0L
aL0L
aL0L
aL0L
aL0L
aL0L
aF0.0
aL0L
aF0.0
aL0L
aL5L
aL0L
aL0L
aL0L
aL0L
aL0L
aL0L
aL0L
aL0L
aF0.0
aL0L
aL0L
aL0L
aF0.0
aL0L
aL0L
aL0L
aL0L
aL0L
aF0.0
aL0L
aL0L
aL0L
aL0L
aL0L
aF0.0
aF0.0
aL0L
aF0.0
aL12L
aL0L
aL0L
aL0L
aL0L
aL0L
aL7L
aL0L
aL10L
aL0L
aL0L
aL6L
aF0.0
aF0.0
aF0.0
aL0L
aF0.0
aL0L
aL0L
aL0L
aL0L
aL0L
aL0L
aL0L
aL0L
aL0L
aL0L
aL0L
aL0L
aL0L
aL0L
aF0.0
aF0.0
aL0L
aL0L
aL10L
aL5L
aL0L
aF0.0
aF0.0
aL0L
aL0L
aL11L
aF0.0
aL0L
aL0L
aL0L
aL5L
aF0.0
aL427885L
aL2557L
aL1L
ag14
aL7L
aL0L
aL0L
aL0L
aF0.0
aL0L
aF0.0
aL0L
aL0L
aL0L
aL0L
aL0L
aL0L
aL0L
aL0L
aL0L
aL0L
aL0L
aL0L
aL0L
aL10L
aL9L
aL12L
aL10L
aL13L
aL0L
aL0L
aL0L
aL0L
aL0L
aL0L
aL0L
aL0L
aL0L
aL0L
aL0L
aL0L
aL0L
aL0L
aL0L
aL0L
aL0L
aL0L
aL0L
aL0L
aL0L
aL0L
aL0L
aL0L
aL0L
aL0L
aL0L
aL0L
aL0L
aL0L
aL0L
aL0L
aL0L
aL0L
aL0L
aL0L
aL0L
aL0L
aL0L
aL0L
aL0L
aL0L
aL0L
aL0L
aL0L
aL0L
aL0L
aL0L
aL0L
aL0L
aL0L
aL0L
aL0L
aL0L
aL0L
aL0L
aL0L
aL0L
aL0L
aL0L
aL0L
aL0L
aL0L
aL0L
aL0L
aL0L
aL0L
aL0L
aL0L
aF0.0
aF0.0
aL0L
aL0L
aL3L
aL7L
aL8L
aL0L
aL0L
aL0L
aL0L
aL0L
aL0L
aL0L
aL0L
aL0L
aL0L
aL0L
aL0L
aL0L
aL0L
aL0L
aL0L
aL0L
aL0L
aL0L
aL0L
aL0L
aF0.0
aL0L
aF0.0
aL0L
aL0L
aL0L
aL5L
aL0L
aL0L
aL0L
aL0L
aL0L
aL0L
aF0.0
aL0L
aL0L
aL0L
aF0.0
aL0L
aL0L
aL0L
aL0L
aL0L
aF0.0
aL0L
aL0L
aL0L
aL0L
aL0L
aF0.0
aF0.0
aL0L
aF0.0
aL12L
aL0L
aL0L
aL0L
aL0L
aL0L
aL7L
aL0L
aL10L
aL0L
aL0L
aL9L
aF0.0
aF0.0
aF0.0
aL0L
aF0.0
aL0L
aL0L
aL0L
aL0L
aL0L
aL0L
aL0L
aL0L
aL0L
aL0L
aL0L
aL0L
aL0L
aL0L
aF0.0
aF0.0
aL0L
aL0L
aL12L
aL13L
aL0L
aF0.0
aF0.0
aL0L
aL0L
aL11L
aF0.0
aL0L
aL0L
aL0L
aL10L
aF0.0
aL444145L
aL2557L
aL1L
ag14
aL7L
aL0L
aL0L
aL0L
aF0.0
aL0L
aF0.0
aL0L
aL0L
aL0L
aL0L
aL0L
aL0L
aL0L
aL0L
aL0L
aL0L
aL0L
aL0L
aL0L
aL0L
aL0L
aL0L
aL0L
aL0L
aL0L
aL0L
aL0L
aL0L
aL0L
aL0L
aL0L
aL0L
aL0L
aL0L
aL0L
aL0L
aL0L
aL0L
aL0L
aL0L
aL0L
aL0L
aL0L
aL0L
aL0L
aL0L
aL0L
aL0L
aL0L
aL0L
aL0L
aL0L
aL0L
aL0L
aL0L
aL0L
aL0L
aL0L
aL0L
aL0L
aL0L
aL0L
aL0L
aL0L
aL0L
aL0L
aL0L
aL0L
aL0L
aL0L
aL0L
aL0L
aL0L
aL0L
aL0L
aL0L
aL0L
aL0L
aL0L
aL0L
aL0L
aL0L
aL0L
aL0L
aL0L
aL0L
aL0L
aL0L
aL0L
aL0L
aL0L
aL0L
aL0L
aF0.0
aF0.0
aL0L
aL0L
aL0L
aL0L
aL0L
aL0L
aL0L
aL0L
aL0L
aL0L
aL0L
aL0L
aL0L
aL0L
aL0L
aL0L
aL0L
aL0L
aL0L
aL0L
aL0L
aL0L
aL0L
aL0L
aL0L
aL0L
aF0.0
aL0L
aF0.0
aL0L
aL0L
aL0L
aL0L
aL0L
aL0L
aL0L
aL0L
aL0L
aL0L
aF0.0
aL0L
aL0L
aL0L
aF0.0
aL0L
aL0L
aL0L
aL0L
aL0L
aF0.0
aL0L
aL0L
aL0L
aL0L
aL0L
aF0.0
aF0.0
aL0L
aF0.0
aL0L
aL0L
aL0L
aL0L
aL0L
aL0L
aL0L
aL0L
aL0L
aL0L
aL0L
aL0L
aF0.0
aF0.0
aF0.0
aL0L
aF0.0
aL0L
aL0L
aL0L
aL0L
aL0L
aL0L
aL0L
aL0L
aL0L
aL0L
aL0L
aL0L
aL0L
aL0L
aF0.0
aF0.0
aL0L
aL0L
aL0L
aL0L
aL0L
aF0.0
aF0.0
aL0L
aL0L
aL0L
aF0.0
aL0L
aL0L
aL0L
aL0L
aF0.0
aL444180L
aL2557L
aL1L
ag14
aL7L
aL0L
aL0L
aL0L
aF0.0
aL0L
aF0.0
aL0L
aL0L
aL0L
aL0L
aL0L
aL0L
aL0L
aL0L
aL0L
aL0L
aL0L
aL0L
aL0L
aL0L
aL0L
aL0L
aL0L
aL0L
aL0L
aL0L
aL0L
aL0L
aL0L
aL0L
aL0L
aL0L
aL0L
aL0L
aL0L
aL0L
aL0L
aL0L
aL0L
aL0L
aL0L
aL0L
aL0L
aL0L
aL0L
aL0L
aL0L
aL0L
aL0L
aL0L
aL0L
aL0L
aL0L
aL0L
aL0L
aL0L
aL0L
aL0L
aL0L
aL0L
aL0L
aL0L
aL0L
aL0L
aL0L
aL0L
aL0L
aL0L
aL0L
aL0L
aL0L
aL0L
aL0L
aL0L
aL0L
aL0L
aL0L
aL0L
aL0L
aL0L
aL0L
aL0L
aL0L
aL0L
aL0L
aL0L
aL0L
aL0L
aL0L
aL0L
aL0L
aL0L
aL0L
aF0.0
aF0.0
aL0L
aL0L
aL0L
aL0L
aL0L
aL0L
aL0L
aL0L
aL0L
aL0L
aL0L
aL0L
aL0L
aL0L
aL0L
aL0L
aL0L
aL0L
aL0L
aL0L
aL0L
aL0L
aL0L
aL0L
aL0L
aL0L
aF0.0
aL0L
aF0.0
aL0L
aL0L
aL0L
aL0L
aL0L
aL0L
aL0L
aL0L
aL0L
aL0L
aF0.0
aL0L
aL0L
aL0L
aF0.0
aL0L
aL0L
aL0L
aL0L
aL0L
aF0.0
aL0L
aL0L
aL0L
aL0L
aL0L
aF0.0
aF0.0
aL0L
aF0.0
aL0L
aL0L
aL0L
aL0L
aL0L
aL0L
aL0L
aL0L
aL0L
aL0L
aL0L
aL0L
aF0.0
aF0.0
aF0.0
aL0L
aF0.0
aL0L
aL0L
aL0L
aL0L
aL0L
aL0L
aL0L
aL0L
aL0L
aL0L
aL0L
aL0L
aL0L
aL0L
aF0.0
aF0.0
aL0L
aL0L
aL0L
aL0L
aL0L
aF0.0
aF0.0
aL0L
aL0L
aL0L
aF0.0
aL0L
aL0L
aL0L
aL0L
aF0.0
atp15
b.L
aL0L
aL0L
aL0L
aL0L
aL0L
aL0L
aL0L
aF0.0
aF0.0
aL0L
aL0L
aL9L
aL0L
aL0L
aF0.0
aF0.0
aL0L
aL0L
aL13L
aF0.0
aL0L
aL0L
aL0L
aL6L
aF0.0
atp15
b.aF0.0
aL0L
aL0L
aL12L
aF0.0
aL0L
aL0L
aL0L
aL5L
aF0.0
atp15
b.